---
triple:          'arm64-apple-darwin'
binary-path:     main
relocations:
  - { offsetInCU: 0x459F, offset: 0x459F, size: 0x8, addend: 0x0, symName: __ZNSt3__124__put_character_sequenceB8ue170006IcNS_11char_traitsIcEEEERNS_13basic_ostreamIT_T0_EES7_PKS4_m, symObjAddr: 0xA74, symBinAddr: 0x100004864, symSize: 0x1EC }
  - { offsetInCU: 0x5F52, offset: 0x5F52, size: 0x8, addend: 0x0, symName: __ZNSt3__1lsB8ue170006INS_11char_traitsIcEEEERNS_13basic_ostreamIcT_EES6_PKc, symObjAddr: 0x10C, symBinAddr: 0x100003EFC, symSize: 0x48 }
  - { offsetInCU: 0x5F98, offset: 0x5F98, size: 0x8, addend: 0x0, symName: __ZNSt3__14endlB8ue170006IcNS_11char_traitsIcEEEERNS_13basic_ostreamIT_T0_EES7_, symObjAddr: 0x180, symBinAddr: 0x100003F70, symSize: 0x58 }
  - { offsetInCU: 0x5FD8, offset: 0x5FD8, size: 0x8, addend: 0x0, symName: __ZNSt3__118__constexpr_strlenB8ue170006EPKc, symObjAddr: 0x3BC, symBinAddr: 0x1000041AC, symSize: 0x24 }
  - { offsetInCU: 0x6004, offset: 0x6004, size: 0x8, addend: 0x0, symName: __ZNSt3__112__to_addressB8ue170006IN7graphic5colorEEEPT_S4_, symObjAddr: 0x7A0, symBinAddr: 0x100004590, symSize: 0x14 }
  - { offsetInCU: 0x6039, offset: 0x6039, size: 0x8, addend: 0x0, symName: __ZNSt3__110destroy_atB8ue170006IN7graphic5colorELi0EEEvPT_, symObjAddr: 0x7B4, symBinAddr: 0x1000045A4, symSize: 0x24 }
  - { offsetInCU: 0x6070, offset: 0x6070, size: 0x8, addend: 0x0, symName: __ZNSt3__112__destroy_atB8ue170006IN7graphic5colorELi0EEEvPT_, symObjAddr: 0x7D8, symBinAddr: 0x1000045C8, symSize: 0x2C }
  - { offsetInCU: 0x60A7, offset: 0x60A7, size: 0x8, addend: 0x0, symName: __ZNSt3__119__libcpp_deallocateB8ue170006EPvmm, symObjAddr: 0x8B4, symBinAddr: 0x1000046A4, symSize: 0x60 }
  - { offsetInCU: 0x610C, offset: 0x610C, size: 0x8, addend: 0x0, symName: __ZNSt3__124__is_overaligned_for_newB8ue170006Em, symObjAddr: 0x914, symBinAddr: 0x100004704, symSize: 0x20 }
  - { offsetInCU: 0x613A, offset: 0x613A, size: 0x8, addend: 0x0, symName: __ZNSt3__127__do_deallocate_handle_sizeB8ue170006IJSt11align_val_tEEEvPvmDpT_, symObjAddr: 0x934, symBinAddr: 0x100004724, symSize: 0x30 }
  - { offsetInCU: 0x618D, offset: 0x618D, size: 0x8, addend: 0x0, symName: __ZNSt3__127__do_deallocate_handle_sizeB8ue170006IJEEEvPvmDpT_, symObjAddr: 0x964, symBinAddr: 0x100004754, symSize: 0x28 }
  - { offsetInCU: 0x61CB, offset: 0x61CB, size: 0x8, addend: 0x0, symName: __ZNSt3__124__libcpp_operator_deleteB8ue170006IJPvSt11align_val_tEEEvDpT_, symObjAddr: 0x98C, symBinAddr: 0x10000477C, symSize: 0x2C }
  - { offsetInCU: 0x6214, offset: 0x6214, size: 0x8, addend: 0x0, symName: __ZNSt3__124__libcpp_operator_deleteB8ue170006IJPvEEEvDpT_, symObjAddr: 0x9B8, symBinAddr: 0x1000047A8, symSize: 0x24 }
  - { offsetInCU: 0x6249, offset: 0x6249, size: 0x8, addend: 0x0, symName: __ZNSt3__116__pad_and_outputB8ue170006IcNS_11char_traitsIcEEEENS_19ostreambuf_iteratorIT_T0_EES6_PKS4_S8_S8_RNS_8ios_baseES4_, symObjAddr: 0xC7C, symBinAddr: 0x100004A6C, symSize: 0x240 }
  - { offsetInCU: 0x6318, offset: 0x6318, size: 0x8, addend: 0x0, symName: __ZNSt3__112__to_addressB8ue170006IcEEPT_S2_, symObjAddr: 0x10EC, symBinAddr: 0x100004EDC, symSize: 0x14 }
  - { offsetInCU: 0x634D, offset: 0x634D, size: 0x8, addend: 0x0, symName: __ZNSt3__19use_facetB8ue170006INS_5ctypeIcEEEERKT_RKNS_6localeE, symObjAddr: 0x13A4, symBinAddr: 0x100005194, symSize: 0x2C }
  - { offsetInCU: 0xA35E, offset: 0xA35E, size: 0x8, addend: 0x0, symName: _main, symObjAddr: 0x0, symBinAddr: 0x100003DF0, symSize: 0x10C }
  - { offsetInCU: 0xA397, offset: 0xA397, size: 0x8, addend: 0x0, symName: __ZNSt3__113basic_ostreamIcNS_11char_traitsIcEEElsB8ue170006EPFRS3_S4_E, symObjAddr: 0x154, symBinAddr: 0x100003F44, symSize: 0x2C }
  - { offsetInCU: 0xA3D0, offset: 0xA3D0, size: 0x8, addend: 0x0, symName: __ZNSt3__112basic_stringIcNS_11char_traitsIcEENS_9allocatorIcEEEC1B8ue170006ILi0EEEPKc, symObjAddr: 0x1D8, symBinAddr: 0x100003FC8, symSize: 0x34 }
  - { offsetInCU: 0xA432, offset: 0xA432, size: 0x8, addend: 0x0, symName: __ZN7graphic5imageD1Ev, symObjAddr: 0x20C, symBinAddr: 0x100003FFC, symSize: 0x2C }
  - { offsetInCU: 0xA45E, offset: 0xA45E, size: 0x8, addend: 0x0, symName: __ZNSt3__112basic_stringIcNS_11char_traitsIcEENS_9allocatorIcEEEC2B8ue170006ILi0EEEPKc, symObjAddr: 0x238, symBinAddr: 0x100004028, symSize: 0x58 }
  - { offsetInCU: 0xA4A2, offset: 0xA4A2, size: 0x8, addend: 0x0, symName: __ZNSt3__117__compressed_pairINS_12basic_stringIcNS_11char_traitsIcEENS_9allocatorIcEEE5__repES5_EC1B8ue170006INS_18__default_init_tagESA_EEOT_OT0_, symObjAddr: 0x290, symBinAddr: 0x100004080, symSize: 0x3C }
  - { offsetInCU: 0xA4FA, offset: 0xA4FA, size: 0x8, addend: 0x0, symName: __ZNSt3__111char_traitsIcE6lengthB8ue170006EPKc, symObjAddr: 0x2CC, symBinAddr: 0x1000040BC, symSize: 0x34 }
  - { offsetInCU: 0xA51D, offset: 0xA51D, size: 0x8, addend: 0x0, symName: __ZNSt3__117__compressed_pairINS_12basic_stringIcNS_11char_traitsIcEENS_9allocatorIcEEE5__repES5_EC2B8ue170006INS_18__default_init_tagESA_EEOT_OT0_, symObjAddr: 0x300, symBinAddr: 0x1000040F0, symSize: 0x3C }
  - { offsetInCU: 0xA575, offset: 0xA575, size: 0x8, addend: 0x0, symName: __ZNSt3__122__compressed_pair_elemINS_12basic_stringIcNS_11char_traitsIcEENS_9allocatorIcEEE5__repELi0ELb0EEC2B8ue170006ENS_18__default_init_tagE, symObjAddr: 0x33C, symBinAddr: 0x10000412C, symSize: 0x14 }
  - { offsetInCU: 0xA5AA, offset: 0xA5AA, size: 0x8, addend: 0x0, symName: __ZNSt3__122__compressed_pair_elemINS_9allocatorIcEELi1ELb1EEC2B8ue170006ENS_18__default_init_tagE, symObjAddr: 0x350, symBinAddr: 0x100004140, symSize: 0x2C }
  - { offsetInCU: 0xA5DF, offset: 0xA5DF, size: 0x8, addend: 0x0, symName: __ZNSt3__19allocatorIcEC2B8ue170006Ev, symObjAddr: 0x37C, symBinAddr: 0x10000416C, symSize: 0x2C }
  - { offsetInCU: 0xA609, offset: 0xA609, size: 0x8, addend: 0x0, symName: __ZNSt3__116__non_trivial_ifILb1ENS_9allocatorIcEEEC2B8ue170006Ev, symObjAddr: 0x3A8, symBinAddr: 0x100004198, symSize: 0x14 }
  - { offsetInCU: 0xA633, offset: 0xA633, size: 0x8, addend: 0x0, symName: __ZN7graphic5imageD2Ev, symObjAddr: 0x3EC, symBinAddr: 0x1000041DC, symSize: 0x30 }
  - { offsetInCU: 0xA65F, offset: 0xA65F, size: 0x8, addend: 0x0, symName: __ZNSt3__16vectorIN7graphic5colorENS_9allocatorIS2_EEED1B8ue170006Ev, symObjAddr: 0x41C, symBinAddr: 0x10000420C, symSize: 0x2C }
  - { offsetInCU: 0xA689, offset: 0xA689, size: 0x8, addend: 0x0, symName: __ZNSt3__16vectorIN7graphic5colorENS_9allocatorIS2_EEED2B8ue170006Ev, symObjAddr: 0x448, symBinAddr: 0x100004238, symSize: 0x44 }
  - { offsetInCU: 0xA6B3, offset: 0xA6B3, size: 0x8, addend: 0x0, symName: __ZNSt3__16vectorIN7graphic5colorENS_9allocatorIS2_EEE16__destroy_vectorC1B8ue170006ERS5_, symObjAddr: 0x48C, symBinAddr: 0x10000427C, symSize: 0x34 }
  - { offsetInCU: 0xA6EC, offset: 0xA6EC, size: 0x8, addend: 0x0, symName: __ZNSt3__16vectorIN7graphic5colorENS_9allocatorIS2_EEE16__destroy_vectorclB8ue170006Ev, symObjAddr: 0x4C0, symBinAddr: 0x1000042B0, symSize: 0x90 }
  - { offsetInCU: 0xA712, offset: 0xA712, size: 0x8, addend: 0x0, symName: __ZNSt3__16vectorIN7graphic5colorENS_9allocatorIS2_EEE16__destroy_vectorC2B8ue170006ERS5_, symObjAddr: 0x550, symBinAddr: 0x100004340, symSize: 0x20 }
  - { offsetInCU: 0xA74B, offset: 0xA74B, size: 0x8, addend: 0x0, symName: __ZNSt3__16vectorIN7graphic5colorENS_9allocatorIS2_EEE7__clearB8ue170006Ev, symObjAddr: 0x570, symBinAddr: 0x100004360, symSize: 0x28 }
  - { offsetInCU: 0xA771, offset: 0xA771, size: 0x8, addend: 0x0, symName: __ZNKSt3__16vectorIN7graphic5colorENS_9allocatorIS2_EEE17__annotate_deleteB8ue170006Ev, symObjAddr: 0x598, symBinAddr: 0x100004388, symSize: 0xB8 }
  - { offsetInCU: 0xA797, offset: 0xA797, size: 0x8, addend: 0x0, symName: __ZNSt3__116allocator_traitsINS_9allocatorIN7graphic5colorEEEE10deallocateB8ue170006ERS4_PS3_m, symObjAddr: 0x650, symBinAddr: 0x100004440, symSize: 0x34 }
  - { offsetInCU: 0xA7D9, offset: 0xA7D9, size: 0x8, addend: 0x0, symName: __ZNSt3__16vectorIN7graphic5colorENS_9allocatorIS2_EEE7__allocB8ue170006Ev, symObjAddr: 0x684, symBinAddr: 0x100004474, symSize: 0x28 }
  - { offsetInCU: 0xA7FF, offset: 0xA7FF, size: 0x8, addend: 0x0, symName: __ZNKSt3__16vectorIN7graphic5colorENS_9allocatorIS2_EEE8capacityB8ue170006Ev, symObjAddr: 0x6AC, symBinAddr: 0x10000449C, symSize: 0x40 }
  - { offsetInCU: 0xA825, offset: 0xA825, size: 0x8, addend: 0x0, symName: __ZNSt3__16vectorIN7graphic5colorENS_9allocatorIS2_EEE22__base_destruct_at_endB8ue170006EPS2_, symObjAddr: 0x6EC, symBinAddr: 0x1000044DC, symSize: 0x8C }
  - { offsetInCU: 0xA869, offset: 0xA869, size: 0x8, addend: 0x0, symName: __ZNSt3__116allocator_traitsINS_9allocatorIN7graphic5colorEEEE7destroyB8ue170006IS3_vvEEvRS4_PT_, symObjAddr: 0x778, symBinAddr: 0x100004568, symSize: 0x28 }
  - { offsetInCU: 0xA8A4, offset: 0xA8A4, size: 0x8, addend: 0x0, symName: __ZNKSt3__16vectorIN7graphic5colorENS_9allocatorIS2_EEE31__annotate_contiguous_containerB8ue170006EPKvS7_S7_S7_, symObjAddr: 0x804, symBinAddr: 0x1000045F4, symSize: 0x20 }
  - { offsetInCU: 0xA8FA, offset: 0xA8FA, size: 0x8, addend: 0x0, symName: __ZNKSt3__16vectorIN7graphic5colorENS_9allocatorIS2_EEE4dataB8ue170006Ev, symObjAddr: 0x824, symBinAddr: 0x100004614, symSize: 0x28 }
  - { offsetInCU: 0xA920, offset: 0xA920, size: 0x8, addend: 0x0, symName: __ZNKSt3__16vectorIN7graphic5colorENS_9allocatorIS2_EEE4sizeB8ue170006Ev, symObjAddr: 0x84C, symBinAddr: 0x10000463C, symSize: 0x28 }
  - { offsetInCU: 0xA946, offset: 0xA946, size: 0x8, addend: 0x0, symName: __ZNSt3__19allocatorIN7graphic5colorEE10deallocateB8ue170006EPS2_m, symObjAddr: 0x874, symBinAddr: 0x100004664, symSize: 0x40 }
  - { offsetInCU: 0xA988, offset: 0xA988, size: 0x8, addend: 0x0, symName: __ZNSt3__117__compressed_pairIPN7graphic5colorENS_9allocatorIS2_EEE6secondB8ue170006Ev, symObjAddr: 0x9DC, symBinAddr: 0x1000047CC, symSize: 0x24 }
  - { offsetInCU: 0xA9AE, offset: 0xA9AE, size: 0x8, addend: 0x0, symName: __ZNSt3__122__compressed_pair_elemINS_9allocatorIN7graphic5colorEEELi1ELb1EE5__getB8ue170006Ev, symObjAddr: 0xA00, symBinAddr: 0x1000047F0, symSize: 0x14 }
  - { offsetInCU: 0xA9D4, offset: 0xA9D4, size: 0x8, addend: 0x0, symName: __ZNKSt3__16vectorIN7graphic5colorENS_9allocatorIS2_EEE9__end_capB8ue170006Ev, symObjAddr: 0xA14, symBinAddr: 0x100004804, symSize: 0x28 }
  - { offsetInCU: 0xA9FA, offset: 0xA9FA, size: 0x8, addend: 0x0, symName: __ZNKSt3__117__compressed_pairIPN7graphic5colorENS_9allocatorIS2_EEE5firstB8ue170006Ev, symObjAddr: 0xA3C, symBinAddr: 0x10000482C, symSize: 0x24 }
  - { offsetInCU: 0xAA20, offset: 0xAA20, size: 0x8, addend: 0x0, symName: __ZNKSt3__122__compressed_pair_elemIPN7graphic5colorELi0ELb0EE5__getB8ue170006Ev, symObjAddr: 0xA60, symBinAddr: 0x100004850, symSize: 0x14 }
  - { offsetInCU: 0xAA64, offset: 0xAA64, size: 0x8, addend: 0x0, symName: __ZNKSt3__113basic_ostreamIcNS_11char_traitsIcEEE6sentrycvbB8ue170006Ev, symObjAddr: 0xC60, symBinAddr: 0x100004A50, symSize: 0x1C }
  - { offsetInCU: 0xAA8A, offset: 0xAA8A, size: 0x8, addend: 0x0, symName: __ZNSt3__119ostreambuf_iteratorIcNS_11char_traitsIcEEEC1B8ue170006ERNS_13basic_ostreamIcS2_EE, symObjAddr: 0xEBC, symBinAddr: 0x100004CAC, symSize: 0x34 }
  - { offsetInCU: 0xAAC2, offset: 0xAAC2, size: 0x8, addend: 0x0, symName: __ZNKSt3__18ios_base5flagsB8ue170006Ev, symObjAddr: 0xEF0, symBinAddr: 0x100004CE0, symSize: 0x18 }
  - { offsetInCU: 0xAAEA, offset: 0xAAEA, size: 0x8, addend: 0x0, symName: __ZNKSt3__19basic_iosIcNS_11char_traitsIcEEE4fillB8ue170006Ev, symObjAddr: 0xF08, symBinAddr: 0x100004CF8, symSize: 0x64 }
  - { offsetInCU: 0xAB12, offset: 0xAB12, size: 0x8, addend: 0x0, symName: __ZNKSt3__119ostreambuf_iteratorIcNS_11char_traitsIcEEE6failedB8ue170006Ev, symObjAddr: 0xF6C, symBinAddr: 0x100004D5C, symSize: 0x24 }
  - { offsetInCU: 0xAB38, offset: 0xAB38, size: 0x8, addend: 0x0, symName: __ZNSt3__19basic_iosIcNS_11char_traitsIcEEE8setstateB8ue170006Ej, symObjAddr: 0xF90, symBinAddr: 0x100004D80, symSize: 0x2C }
  - { offsetInCU: 0xAB6D, offset: 0xAB6D, size: 0x8, addend: 0x0, symName: __ZNKSt3__18ios_base5widthB8ue170006Ev, symObjAddr: 0xFBC, symBinAddr: 0x100004DAC, symSize: 0x18 }
  - { offsetInCU: 0xAB95, offset: 0xAB95, size: 0x8, addend: 0x0, symName: __ZNSt3__115basic_streambufIcNS_11char_traitsIcEEE5sputnB8ue170006EPKcl, symObjAddr: 0xFD4, symBinAddr: 0x100004DC4, symSize: 0x3C }
  - { offsetInCU: 0xABD7, offset: 0xABD7, size: 0x8, addend: 0x0, symName: __ZNSt3__112basic_stringIcNS_11char_traitsIcEENS_9allocatorIcEEEC1B8ue170006Emc, symObjAddr: 0x1010, symBinAddr: 0x100004E00, symSize: 0x3C }
  - { offsetInCU: 0xAC1F, offset: 0xAC1F, size: 0x8, addend: 0x0, symName: __ZNSt3__112basic_stringIcNS_11char_traitsIcEENS_9allocatorIcEEE4dataB8ue170006Ev, symObjAddr: 0x104C, symBinAddr: 0x100004E3C, symSize: 0x28 }
  - { offsetInCU: 0xAC45, offset: 0xAC45, size: 0x8, addend: 0x0, symName: __ZNSt3__18ios_base5widthB8ue170006El, symObjAddr: 0x1074, symBinAddr: 0x100004E64, symSize: 0x2C }
  - { offsetInCU: 0xAC8B, offset: 0xAC8B, size: 0x8, addend: 0x0, symName: __ZNSt3__112basic_stringIcNS_11char_traitsIcEENS_9allocatorIcEEEC2B8ue170006Emc, symObjAddr: 0x10A0, symBinAddr: 0x100004E90, symSize: 0x4C }
  - { offsetInCU: 0xACD3, offset: 0xACD3, size: 0x8, addend: 0x0, symName: __ZNSt3__112basic_stringIcNS_11char_traitsIcEENS_9allocatorIcEEE13__get_pointerB8ue170006Ev, symObjAddr: 0x1100, symBinAddr: 0x100004EF0, symSize: 0x54 }
  - { offsetInCU: 0xACF9, offset: 0xACF9, size: 0x8, addend: 0x0, symName: __ZNKSt3__112basic_stringIcNS_11char_traitsIcEENS_9allocatorIcEEE9__is_longB8ue170006Ev, symObjAddr: 0x1154, symBinAddr: 0x100004F44, symSize: 0x38 }
  - { offsetInCU: 0xAD1F, offset: 0xAD1F, size: 0x8, addend: 0x0, symName: __ZNSt3__112basic_stringIcNS_11char_traitsIcEENS_9allocatorIcEEE18__get_long_pointerB8ue170006Ev, symObjAddr: 0x118C, symBinAddr: 0x100004F7C, symSize: 0x28 }
  - { offsetInCU: 0xAD45, offset: 0xAD45, size: 0x8, addend: 0x0, symName: __ZNSt3__112basic_stringIcNS_11char_traitsIcEENS_9allocatorIcEEE19__get_short_pointerB8ue170006Ev, symObjAddr: 0x11B4, symBinAddr: 0x100004FA4, symSize: 0x28 }
  - { offsetInCU: 0xAD6B, offset: 0xAD6B, size: 0x8, addend: 0x0, symName: __ZNKSt3__117__compressed_pairINS_12basic_stringIcNS_11char_traitsIcEENS_9allocatorIcEEE5__repES5_E5firstB8ue170006Ev, symObjAddr: 0x11DC, symBinAddr: 0x100004FCC, symSize: 0x24 }
  - { offsetInCU: 0xAD91, offset: 0xAD91, size: 0x8, addend: 0x0, symName: __ZNKSt3__122__compressed_pair_elemINS_12basic_stringIcNS_11char_traitsIcEENS_9allocatorIcEEE5__repELi0ELb0EE5__getB8ue170006Ev, symObjAddr: 0x1200, symBinAddr: 0x100004FF0, symSize: 0x14 }
  - { offsetInCU: 0xADB7, offset: 0xADB7, size: 0x8, addend: 0x0, symName: __ZNSt3__117__compressed_pairINS_12basic_stringIcNS_11char_traitsIcEENS_9allocatorIcEEE5__repES5_E5firstB8ue170006Ev, symObjAddr: 0x1214, symBinAddr: 0x100005004, symSize: 0x24 }
  - { offsetInCU: 0xADDD, offset: 0xADDD, size: 0x8, addend: 0x0, symName: __ZNSt3__122__compressed_pair_elemINS_12basic_stringIcNS_11char_traitsIcEENS_9allocatorIcEEE5__repELi0ELb0EE5__getB8ue170006Ev, symObjAddr: 0x1238, symBinAddr: 0x100005028, symSize: 0x14 }
  - { offsetInCU: 0xAE03, offset: 0xAE03, size: 0x8, addend: 0x0, symName: __ZNSt3__114pointer_traitsIPcE10pointer_toB8ue170006ERc, symObjAddr: 0x124C, symBinAddr: 0x10000503C, symSize: 0x14 }
  - { offsetInCU: 0xAE26, offset: 0xAE26, size: 0x8, addend: 0x0, symName: __ZNSt3__119ostreambuf_iteratorIcNS_11char_traitsIcEEEC2B8ue170006ERNS_13basic_ostreamIcS2_EE, symObjAddr: 0x1260, symBinAddr: 0x100005050, symSize: 0x54 }
  - { offsetInCU: 0xAE5E, offset: 0xAE5E, size: 0x8, addend: 0x0, symName: __ZNKSt3__19basic_iosIcNS_11char_traitsIcEEE5rdbufB8ue170006Ev, symObjAddr: 0x12B4, symBinAddr: 0x1000050A4, symSize: 0x24 }
  - { offsetInCU: 0xAE86, offset: 0xAE86, size: 0x8, addend: 0x0, symName: __ZNKSt3__18ios_base5rdbufB8ue170006Ev, symObjAddr: 0x12D8, symBinAddr: 0x1000050C8, symSize: 0x18 }
  - { offsetInCU: 0xAEAC, offset: 0xAEAC, size: 0x8, addend: 0x0, symName: __ZNSt3__111char_traitsIcE11eq_int_typeB8ue170006Eii, symObjAddr: 0x12F0, symBinAddr: 0x1000050E0, symSize: 0x28 }
  - { offsetInCU: 0xAEDF, offset: 0xAEDF, size: 0x8, addend: 0x0, symName: __ZNSt3__111char_traitsIcE3eofB8ue170006Ev, symObjAddr: 0x1318, symBinAddr: 0x100005108, symSize: 0x8 }
  - { offsetInCU: 0xAEF3, offset: 0xAEF3, size: 0x8, addend: 0x0, symName: __ZNKSt3__19basic_iosIcNS_11char_traitsIcEEE5widenB8ue170006Ec, symObjAddr: 0x1320, symBinAddr: 0x100005110, symSize: 0x84 }
  - { offsetInCU: 0xAF5C, offset: 0xAF5C, size: 0x8, addend: 0x0, symName: __ZNKSt3__15ctypeIcE5widenB8ue170006Ec, symObjAddr: 0x13D0, symBinAddr: 0x1000051C0, symSize: 0x38 }
  - { offsetInCU: 0xAF91, offset: 0xAF91, size: 0x8, addend: 0x0, symName: __ZNSt3__18ios_base8setstateB8ue170006Ej, symObjAddr: 0x1408, symBinAddr: 0x1000051F8, symSize: 0x34 }
  - { offsetInCU: 0x26, offset: 0xB28B, size: 0x8, addend: 0x0, symName: __ZNK4math5angle11degree_typecvfEv, symObjAddr: 0x0, symBinAddr: 0x10000522C, symSize: 0x34 }
  - { offsetInCU: 0x2492, offset: 0xD6F7, size: 0x8, addend: 0x0, symName: __ZNK4math5angle11degree_typecvfEv, symObjAddr: 0x0, symBinAddr: 0x10000522C, symSize: 0x34 }
  - { offsetInCU: 0x24BA, offset: 0xD71F, size: 0x8, addend: 0x0, symName: __ZN4math5angle11degree_typeaSEf, symObjAddr: 0x34, symBinAddr: 0x100005260, symSize: 0x3C }
  - { offsetInCU: 0x24F0, offset: 0xD755, size: 0x8, addend: 0x0, symName: __ZN4math5angleC2Ev, symObjAddr: 0x70, symBinAddr: 0x10000529C, symSize: 0x14 }
  - { offsetInCU: 0x251C, offset: 0xD781, size: 0x8, addend: 0x0, symName: __ZN4math5angleC1Ev, symObjAddr: 0x84, symBinAddr: 0x1000052B0, symSize: 0x2C }
  - { offsetInCU: 0x2548, offset: 0xD7AD, size: 0x8, addend: 0x0, symName: __ZN4math5angleC2Ef, symObjAddr: 0xB0, symBinAddr: 0x1000052DC, symSize: 0x20 }
  - { offsetInCU: 0x2582, offset: 0xD7E7, size: 0x8, addend: 0x0, symName: __ZN4math5angleC1Ef, symObjAddr: 0xD0, symBinAddr: 0x1000052FC, symSize: 0x34 }
  - { offsetInCU: 0x26, offset: 0xD856, size: 0x8, addend: 0x0, symName: __ZN4math10coordinateC2ENS_5pointENS_10quaternionE, symObjAddr: 0x0, symBinAddr: 0x100005330, symSize: 0x4C }
  - { offsetInCU: 0x587, offset: 0xDDB7, size: 0x8, addend: 0x0, symName: __ZN4mathplINS_5pointENS_6vectorELm4EEET_RKNS_18affine_linear_baseIS3_T0_XT1_EEERKNS_11linear_baseIS5_XT1_EEE, symObjAddr: 0x2F0, symBinAddr: 0x100005620, symSize: 0x58 }
  - { offsetInCU: 0x2A7E, offset: 0x102AE, size: 0x8, addend: 0x0, symName: __ZN4math10coordinateC2ENS_5pointENS_10quaternionE, symObjAddr: 0x0, symBinAddr: 0x100005330, symSize: 0x4C }
  - { offsetInCU: 0x2AB9, offset: 0x102E9, size: 0x8, addend: 0x0, symName: __ZN4math5pointC1ERKS0_, symObjAddr: 0x4C, symBinAddr: 0x10000537C, symSize: 0x34 }
  - { offsetInCU: 0x2AF3, offset: 0x10323, size: 0x8, addend: 0x0, symName: __ZN4math10quaternionC1ERKS0_, symObjAddr: 0x80, symBinAddr: 0x1000053B0, symSize: 0x34 }
  - { offsetInCU: 0x2B61, offset: 0x10391, size: 0x8, addend: 0x0, symName: __ZN4math10coordinateC1ENS_5pointENS_10quaternionE, symObjAddr: 0xB4, symBinAddr: 0x1000053E4, symSize: 0x68 }
  - { offsetInCU: 0x2BDE, offset: 0x1040E, size: 0x8, addend: 0x0, symName: __ZNK4math10coordinate14coordinate_vecEfff, symObjAddr: 0x11C, symBinAddr: 0x10000544C, symSize: 0x90 }
  - { offsetInCU: 0x2C1B, offset: 0x1044B, size: 0x8, addend: 0x0, symName: __ZN4math6vectorD1Ev, symObjAddr: 0x1AC, symBinAddr: 0x1000054DC, symSize: 0x2C }
  - { offsetInCU: 0x2C88, offset: 0x104B8, size: 0x8, addend: 0x0, symName: __ZNK4math10coordinate16coordinate_pointEfff, symObjAddr: 0x1D8, symBinAddr: 0x100005508, symSize: 0x118 }
  - { offsetInCU: 0x2D17, offset: 0x10547, size: 0x8, addend: 0x0, symName: __ZN4math5pointC2ERKS0_, symObjAddr: 0x348, symBinAddr: 0x100005678, symSize: 0x4C }
  - { offsetInCU: 0x2D56, offset: 0x10586, size: 0x8, addend: 0x0, symName: __ZN4math18affine_linear_baseINS_5pointENS_6vectorELm4EEC2ERKS3_, symObjAddr: 0x394, symBinAddr: 0x1000056C4, symSize: 0x4C }
  - { offsetInCU: 0x2D8B, offset: 0x105BB, size: 0x8, addend: 0x0, symName: __ZN4math5pointD1Ev, symObjAddr: 0x3E0, symBinAddr: 0x100005710, symSize: 0x2C }
  - { offsetInCU: 0x2DB7, offset: 0x105E7, size: 0x8, addend: 0x0, symName: __ZN4math5pointD0Ev, symObjAddr: 0x40C, symBinAddr: 0x10000573C, symSize: 0x30 }
  - { offsetInCU: 0x2DE8, offset: 0x10618, size: 0x8, addend: 0x0, symName: __ZN4math10tuple_baseILm4EEC2ERKS1_, symObjAddr: 0x43C, symBinAddr: 0x10000576C, symSize: 0x34 }
  - { offsetInCU: 0x2E1D, offset: 0x1064D, size: 0x8, addend: 0x0, symName: __ZN4math18affine_linear_baseINS_5pointENS_6vectorELm4EED1Ev, symObjAddr: 0x470, symBinAddr: 0x1000057A0, symSize: 0x2C }
  - { offsetInCU: 0x2E49, offset: 0x10679, size: 0x8, addend: 0x0, symName: __ZN4math18affine_linear_baseINS_5pointENS_6vectorELm4EED0Ev, symObjAddr: 0x49C, symBinAddr: 0x1000057CC, symSize: 0x30 }
  - { offsetInCU: 0x2E75, offset: 0x106A5, size: 0x8, addend: 0x0, symName: __ZN4math10tuple_baseILm4EED1Ev, symObjAddr: 0x4CC, symBinAddr: 0x1000057FC, symSize: 0x2C }
  - { offsetInCU: 0x2E9F, offset: 0x106CF, size: 0x8, addend: 0x0, symName: __ZN4math10tuple_baseILm4EED0Ev, symObjAddr: 0x4F8, symBinAddr: 0x100005828, symSize: 0x30 }
  - { offsetInCU: 0x2EC9, offset: 0x106F9, size: 0x8, addend: 0x0, symName: __ZN4math10tuple_baseILm4EED2Ev, symObjAddr: 0x528, symBinAddr: 0x100005858, symSize: 0x24 }
  - { offsetInCU: 0x2EF3, offset: 0x10723, size: 0x8, addend: 0x0, symName: __ZN4math18affine_linear_baseINS_5pointENS_6vectorELm4EED2Ev, symObjAddr: 0x54C, symBinAddr: 0x10000587C, symSize: 0x2C }
  - { offsetInCU: 0x2F1F, offset: 0x1074F, size: 0x8, addend: 0x0, symName: __ZN4math5pointD2Ev, symObjAddr: 0x578, symBinAddr: 0x1000058A8, symSize: 0x2C }
  - { offsetInCU: 0x2F4B, offset: 0x1077B, size: 0x8, addend: 0x0, symName: __ZN4math10quaternionC2ERKS0_, symObjAddr: 0x5A4, symBinAddr: 0x1000058D4, symSize: 0x4C }
  - { offsetInCU: 0x2F8A, offset: 0x107BA, size: 0x8, addend: 0x0, symName: __ZN4math11linear_baseINS_10quaternionELm4EEC2ERKS2_, symObjAddr: 0x5F0, symBinAddr: 0x100005920, symSize: 0x4C }
  - { offsetInCU: 0x2FBF, offset: 0x107EF, size: 0x8, addend: 0x0, symName: __ZN4math10quaternionD1Ev, symObjAddr: 0x63C, symBinAddr: 0x10000596C, symSize: 0x2C }
  - { offsetInCU: 0x2FEB, offset: 0x1081B, size: 0x8, addend: 0x0, symName: __ZN4math10quaternionD0Ev, symObjAddr: 0x668, symBinAddr: 0x100005998, symSize: 0x30 }
  - { offsetInCU: 0x3017, offset: 0x10847, size: 0x8, addend: 0x0, symName: __ZN4math11linear_baseINS_10quaternionELm4EED1Ev, symObjAddr: 0x698, symBinAddr: 0x1000059C8, symSize: 0x2C }
  - { offsetInCU: 0x3043, offset: 0x10873, size: 0x8, addend: 0x0, symName: __ZN4math11linear_baseINS_10quaternionELm4EED0Ev, symObjAddr: 0x6C4, symBinAddr: 0x1000059F4, symSize: 0x30 }
  - { offsetInCU: 0x306F, offset: 0x1089F, size: 0x8, addend: 0x0, symName: __ZN4math11linear_baseINS_10quaternionELm4EED2Ev, symObjAddr: 0x6F4, symBinAddr: 0x100005A24, symSize: 0x2C }
  - { offsetInCU: 0x309B, offset: 0x108CB, size: 0x8, addend: 0x0, symName: __ZN4math10quaternionD2Ev, symObjAddr: 0x720, symBinAddr: 0x100005A50, symSize: 0x2C }
  - { offsetInCU: 0x30C7, offset: 0x108F7, size: 0x8, addend: 0x0, symName: __ZN4math6vectorD2Ev, symObjAddr: 0x74C, symBinAddr: 0x100005A7C, symSize: 0x2C }
  - { offsetInCU: 0x30F3, offset: 0x10923, size: 0x8, addend: 0x0, symName: __ZN4math11linear_baseINS_6vectorELm4EED2Ev, symObjAddr: 0x778, symBinAddr: 0x100005AA8, symSize: 0x2C }
  - { offsetInCU: 0x311F, offset: 0x1094F, size: 0x8, addend: 0x0, symName: __ZNK4math10tuple_baseILm4EEcvDv4_fEv, symObjAddr: 0x7A4, symBinAddr: 0x100005AD4, symSize: 0x18 }
  - { offsetInCU: 0x3E, offset: 0x109E5, size: 0x8, addend: 0x0, symName: __ZN4math5point4ZEROE, symObjAddr: 0x6B70, symBinAddr: 0x100018000, symSize: 0x0 }
  - { offsetInCU: 0x26C2, offset: 0x13069, size: 0x8, addend: 0x0, symName: __ZN4math5pointC2Ev, symObjAddr: 0x0, symBinAddr: 0x100005AEC, symSize: 0x44 }
  - { offsetInCU: 0x26EE, offset: 0x13095, size: 0x8, addend: 0x0, symName: __ZN4math18affine_linear_baseINS_5pointENS_6vectorELm4EEC2Ev, symObjAddr: 0x44, symBinAddr: 0x100005B30, symSize: 0x44 }
  - { offsetInCU: 0x2718, offset: 0x130BF, size: 0x8, addend: 0x0, symName: __ZN4math5pointC1Ev, symObjAddr: 0x88, symBinAddr: 0x100005B74, symSize: 0x2C }
  - { offsetInCU: 0x2744, offset: 0x130EB, size: 0x8, addend: 0x0, symName: __ZN4math5pointC2ERKDv4_f, symObjAddr: 0xB4, symBinAddr: 0x100005BA0, symSize: 0x4C }
  - { offsetInCU: 0x277E, offset: 0x13125, size: 0x8, addend: 0x0, symName: __ZN4math18affine_linear_baseINS_5pointENS_6vectorELm4EEC2ERKDv4_f, symObjAddr: 0x100, symBinAddr: 0x100005BEC, symSize: 0x4C }
  - { offsetInCU: 0x27B6, offset: 0x1315D, size: 0x8, addend: 0x0, symName: __ZN4math5pointC1ERKDv4_f, symObjAddr: 0x14C, symBinAddr: 0x100005C38, symSize: 0x34 }
  - { offsetInCU: 0x27F0, offset: 0x13197, size: 0x8, addend: 0x0, symName: __ZN4math5pointC2Efff, symObjAddr: 0x180, symBinAddr: 0x100005C6C, symSize: 0x60 }
  - { offsetInCU: 0x2846, offset: 0x131ED, size: 0x8, addend: 0x0, symName: __ZN4math18affine_linear_baseINS_5pointENS_6vectorELm4EEC2IJffffEEEDpT_, symObjAddr: 0x1E0, symBinAddr: 0x100005CCC, symSize: 0x64 }
  - { offsetInCU: 0x28C2, offset: 0x13269, size: 0x8, addend: 0x0, symName: __ZN4math5pointC1Efff, symObjAddr: 0x244, symBinAddr: 0x100005D30, symSize: 0x44 }
  - { offsetInCU: 0x2918, offset: 0x132BF, size: 0x8, addend: 0x0, symName: __ZN4math10tuple_baseILm4EEC2Ev, symObjAddr: 0x2E4, symBinAddr: 0x100005D74, symSize: 0x24 }
  - { offsetInCU: 0x2942, offset: 0x132E9, size: 0x8, addend: 0x0, symName: __ZN4math10tuple_baseILm4EEC2ERKDv4_f, symObjAddr: 0x410, symBinAddr: 0x100005D98, symSize: 0x34 }
  - { offsetInCU: 0x297A, offset: 0x13321, size: 0x8, addend: 0x0, symName: __ZN4math10tuple_baseILm4EEC2IJffffEEEDpT_, symObjAddr: 0x444, symBinAddr: 0x100005DCC, symSize: 0x54 }
  - { offsetInCU: 0x3E, offset: 0x133EA, size: 0x8, addend: 0x0, symName: __ZN4math10quaternion3ONEE, symObjAddr: 0x8C70, symBinAddr: 0x100018020, symSize: 0x0 }
  - { offsetInCU: 0x10F, offset: 0x134BB, size: 0x8, addend: 0x0, symName: __ZN4math10quaternion4ZEROE, symObjAddr: 0x8C90, symBinAddr: 0x100018040, symSize: 0x0 }
  - { offsetInCU: 0x12E, offset: 0x134DA, size: 0x8, addend: 0x0, symName: __ZN4mathmlERKNS_10quaternionES2_, symObjAddr: 0x294, symBinAddr: 0x1000060F0, symSize: 0x334 }
  - { offsetInCU: 0x19D, offset: 0x13549, size: 0x8, addend: 0x0, symName: __ZN4math4conjERKNS_10quaternionE, symObjAddr: 0xDE8, symBinAddr: 0x100006C2C, symSize: 0x90 }
  - { offsetInCU: 0x1D9, offset: 0x13585, size: 0x8, addend: 0x0, symName: __ZN4math7inverseERKNS_10quaternionE, symObjAddr: 0xEA4, symBinAddr: 0x100006CBC, symSize: 0x1B4 }
  - { offsetInCU: 0x243, offset: 0x135EF, size: 0x8, addend: 0x0, symName: __ZN4mathdvINS_10quaternionELm4EEET_RKNS_11linear_baseIS2_XT0_EEEf, symObjAddr: 0x1058, symBinAddr: 0x100006E70, symSize: 0x54 }
  - { offsetInCU: 0x290, offset: 0x1363C, size: 0x8, addend: 0x0, symName: __ZN4math13sqr_magnitudeERKNS_10quaternionE, symObjAddr: 0x10AC, symBinAddr: 0x100006EC4, symSize: 0xEC }
  - { offsetInCU: 0x2AE, offset: 0x1365A, size: 0x8, addend: 0x0, symName: __ZN4math9magnitudeERKNS_10quaternionE, symObjAddr: 0x1198, symBinAddr: 0x100006FB0, symSize: 0xF8 }
  - { offsetInCU: 0x309, offset: 0x136B5, size: 0x8, addend: 0x0, symName: __ZN4math10normalizedERKNS_10quaternionE, symObjAddr: 0x12A8, symBinAddr: 0x1000070C0, symSize: 0x11C }
  - { offsetInCU: 0x2745, offset: 0x15AF1, size: 0x8, addend: 0x0, symName: __ZN4math10quaternionC2Ev, symObjAddr: 0x0, symBinAddr: 0x100005E5C, symSize: 0x44 }
  - { offsetInCU: 0x2771, offset: 0x15B1D, size: 0x8, addend: 0x0, symName: __ZN4math11linear_baseINS_10quaternionELm4EEC2Ev, symObjAddr: 0x44, symBinAddr: 0x100005EA0, symSize: 0x44 }
  - { offsetInCU: 0x279B, offset: 0x15B47, size: 0x8, addend: 0x0, symName: __ZN4math10quaternionC1Ev, symObjAddr: 0x88, symBinAddr: 0x100005EE4, symSize: 0x2C }
  - { offsetInCU: 0x27C7, offset: 0x15B73, size: 0x8, addend: 0x0, symName: __ZN4math10quaternionC2ERKDv4_f, symObjAddr: 0xB4, symBinAddr: 0x100005F10, symSize: 0x4C }
  - { offsetInCU: 0x2801, offset: 0x15BAD, size: 0x8, addend: 0x0, symName: __ZN4math11linear_baseINS_10quaternionELm4EEC2ERKDv4_f, symObjAddr: 0x100, symBinAddr: 0x100005F5C, symSize: 0x4C }
  - { offsetInCU: 0x2839, offset: 0x15BE5, size: 0x8, addend: 0x0, symName: __ZN4math10quaternionC1ERKDv4_f, symObjAddr: 0x14C, symBinAddr: 0x100005FA8, symSize: 0x34 }
  - { offsetInCU: 0x2873, offset: 0x15C1F, size: 0x8, addend: 0x0, symName: __ZN4math10quaternionC2Effff, symObjAddr: 0x180, symBinAddr: 0x100005FDC, symSize: 0x64 }
  - { offsetInCU: 0x28D7, offset: 0x15C83, size: 0x8, addend: 0x0, symName: __ZN4math11linear_baseINS_10quaternionELm4EEC2IJffffEEEDpT_, symObjAddr: 0x1E4, symBinAddr: 0x100006040, symSize: 0x64 }
  - { offsetInCU: 0x2953, offset: 0x15CFF, size: 0x8, addend: 0x0, symName: __ZN4math10quaternionC1Effff, symObjAddr: 0x248, symBinAddr: 0x1000060A4, symSize: 0x4C }
  - { offsetInCU: 0x29B7, offset: 0x15D63, size: 0x8, addend: 0x0, symName: __ZNK4math10tuple_baseILm4EEixEm, symObjAddr: 0x5C8, symBinAddr: 0x100006424, symSize: 0x24 }
  - { offsetInCU: 0x29F0, offset: 0x15D9C, size: 0x8, addend: 0x0, symName: __ZNK4math10quaternionclERKNS_6vectorE, symObjAddr: 0x5EC, symBinAddr: 0x100006448, symSize: 0x7E4 }
  - { offsetInCU: 0x2A99, offset: 0x15E45, size: 0x8, addend: 0x0, symName: __Z4sqrtB8ue170006f, symObjAddr: 0x1290, symBinAddr: 0x1000070A8, symSize: 0x18 }
  - { offsetInCU: 0x26, offset: 0x15EB7, size: 0x8, addend: 0x0, symName: __ZN4math3rayC2Ev, symObjAddr: 0x0, symBinAddr: 0x10000724C, symSize: 0x60 }
  - { offsetInCU: 0x16C, offset: 0x15FFD, size: 0x8, addend: 0x0, symName: __ZN4mathmlINS_6vectorELm4EEET_fRKNS_11linear_baseIS2_XT0_EEE, symObjAddr: 0x27C, symBinAddr: 0x100007410, symSize: 0x54 }
  - { offsetInCU: 0x259A, offset: 0x1842B, size: 0x8, addend: 0x0, symName: __ZN4math3rayC2Ev, symObjAddr: 0x0, symBinAddr: 0x10000724C, symSize: 0x60 }
  - { offsetInCU: 0x25C6, offset: 0x18457, size: 0x8, addend: 0x0, symName: __ZN4math3rayC1Ev, symObjAddr: 0x8C, symBinAddr: 0x1000072AC, symSize: 0x2C }
  - { offsetInCU: 0x25F2, offset: 0x18483, size: 0x8, addend: 0x0, symName: __ZN4math3rayC2ERKNS_5pointERKNS_6vectorE, symObjAddr: 0xB8, symBinAddr: 0x1000072D8, symSize: 0x48 }
  - { offsetInCU: 0x263A, offset: 0x184CB, size: 0x8, addend: 0x0, symName: __ZN4math6vectorC1ERKS0_, symObjAddr: 0x134, symBinAddr: 0x100007320, symSize: 0x34 }
  - { offsetInCU: 0x266F, offset: 0x18500, size: 0x8, addend: 0x0, symName: __ZN4math3rayC1ERKNS_5pointERKNS_6vectorE, symObjAddr: 0x168, symBinAddr: 0x100007354, symSize: 0x3C }
  - { offsetInCU: 0x26B7, offset: 0x18548, size: 0x8, addend: 0x0, symName: __ZNK4math3rayclEf, symObjAddr: 0x1A4, symBinAddr: 0x100007390, symSize: 0x80 }
  - { offsetInCU: 0x26ED, offset: 0x1857E, size: 0x8, addend: 0x0, symName: __ZN4math6vectorC2ERKS0_, symObjAddr: 0x52C, symBinAddr: 0x100007464, symSize: 0x4C }
  - { offsetInCU: 0x272C, offset: 0x185BD, size: 0x8, addend: 0x0, symName: __ZN4math11linear_baseINS_6vectorELm4EEC2ERKS2_, symObjAddr: 0x578, symBinAddr: 0x1000074B0, symSize: 0x4C }
  - { offsetInCU: 0x2761, offset: 0x185F2, size: 0x8, addend: 0x0, symName: __ZN4math6vectorD0Ev, symObjAddr: 0x5C4, symBinAddr: 0x1000074FC, symSize: 0x30 }
  - { offsetInCU: 0x278D, offset: 0x1861E, size: 0x8, addend: 0x0, symName: __ZN4math11linear_baseINS_6vectorELm4EED1Ev, symObjAddr: 0x5F4, symBinAddr: 0x10000752C, symSize: 0x2C }
  - { offsetInCU: 0x27B9, offset: 0x1864A, size: 0x8, addend: 0x0, symName: __ZN4math11linear_baseINS_6vectorELm4EED0Ev, symObjAddr: 0x620, symBinAddr: 0x100007558, symSize: 0x30 }
  - { offsetInCU: 0x26, offset: 0x186B0, size: 0x8, addend: 0x0, symName: __ZN4math14transformationC2Ev, symObjAddr: 0x0, symBinAddr: 0x100007588, symSize: 0x44 }
  - { offsetInCU: 0x2844, offset: 0x1AECE, size: 0x8, addend: 0x0, symName: __ZN4math14transformationC2Ev, symObjAddr: 0x0, symBinAddr: 0x100007588, symSize: 0x44 }
  - { offsetInCU: 0x2866, offset: 0x1AEF0, size: 0x8, addend: 0x0, symName: __ZN4math11matrix_baseINS_14transformationENS_6vectorELm4EEC2Ev, symObjAddr: 0x44, symBinAddr: 0x1000075CC, symSize: 0x44 }
  - { offsetInCU: 0x28B1, offset: 0x1AF3B, size: 0x8, addend: 0x0, symName: __ZN4math14transformationC1Ev, symObjAddr: 0x88, symBinAddr: 0x100007610, symSize: 0x54 }
  - { offsetInCU: 0x28FC, offset: 0x1AF86, size: 0x8, addend: 0x0, symName: __ZN4math14transformationC2ERKu11matrix_typeILm4ELm4EfE, symObjAddr: 0xDC, symBinAddr: 0x100007664, symSize: 0x4C }
  - { offsetInCU: 0x2927, offset: 0x1AFB1, size: 0x8, addend: 0x0, symName: __ZN4math11matrix_baseINS_14transformationENS_6vectorELm4EEC2ERKu11matrix_typeILm4ELm4EfE, symObjAddr: 0x128, symBinAddr: 0x1000076B0, symSize: 0x4C }
  - { offsetInCU: 0x2987, offset: 0x1B011, size: 0x8, addend: 0x0, symName: __ZN4math14transformationC1ERKu11matrix_typeILm4ELm4EfE, symObjAddr: 0x174, symBinAddr: 0x1000076FC, symSize: 0x64 }
  - { offsetInCU: 0x29E9, offset: 0x1B073, size: 0x8, addend: 0x0, symName: __ZN4math14transformationC2ERKNS_10quaternionERKNS_6vectorE, symObjAddr: 0x1D8, symBinAddr: 0x100007760, symSize: 0x4C }
  - { offsetInCU: 0x2A51, offset: 0x1B0DB, size: 0x8, addend: 0x0, symName: __ZN4math14transformationC1ERKNS_10quaternionERKNS_6vectorE, symObjAddr: 0x224, symBinAddr: 0x1000077AC, symSize: 0x6C }
  - { offsetInCU: 0x2ACA, offset: 0x1B154, size: 0x8, addend: 0x0, symName: __ZN4math14transformationC2Effffffffffffffff, symObjAddr: 0x290, symBinAddr: 0x100007818, symSize: 0x108 }
  - { offsetInCU: 0x2B7D, offset: 0x1B207, size: 0x8, addend: 0x0, symName: __ZN4math11matrix_baseINS_14transformationENS_6vectorELm4EEC2IJffffffffffffffffEEEDpT_, symObjAddr: 0x398, symBinAddr: 0x100007920, symSize: 0x108 }
  - { offsetInCU: 0x2DBA, offset: 0x1B444, size: 0x8, addend: 0x0, symName: __ZN4math14transformationC1Effffffffffffffff, symObjAddr: 0x4A0, symBinAddr: 0x100007A28, symSize: 0x198 }
  - { offsetInCU: 0x2F88, offset: 0x1B612, size: 0x8, addend: 0x0, symName: __ZN4math14transformationD1Ev, symObjAddr: 0x638, symBinAddr: 0x100007BC0, symSize: 0x2C }
  - { offsetInCU: 0x2FB4, offset: 0x1B63E, size: 0x8, addend: 0x0, symName: __ZN4math14transformationD0Ev, symObjAddr: 0x664, symBinAddr: 0x100007BEC, symSize: 0x30 }
  - { offsetInCU: 0x2FE0, offset: 0x1B66A, size: 0x8, addend: 0x0, symName: __ZN4math15rect_tuple_baseILm4ELm4EEC2Ev, symObjAddr: 0x694, symBinAddr: 0x100007C1C, symSize: 0x24 }
  - { offsetInCU: 0x300A, offset: 0x1B694, size: 0x8, addend: 0x0, symName: __ZN4math11matrix_baseINS_14transformationENS_6vectorELm4EED1Ev, symObjAddr: 0x6B8, symBinAddr: 0x100007C40, symSize: 0x2C }
  - { offsetInCU: 0x3036, offset: 0x1B6C0, size: 0x8, addend: 0x0, symName: __ZN4math11matrix_baseINS_14transformationENS_6vectorELm4EED0Ev, symObjAddr: 0x6E4, symBinAddr: 0x100007C6C, symSize: 0x30 }
  - { offsetInCU: 0x3062, offset: 0x1B6EC, size: 0x8, addend: 0x0, symName: __ZN4math15rect_tuple_baseILm4ELm4EED1Ev, symObjAddr: 0x714, symBinAddr: 0x100007C9C, symSize: 0x2C }
  - { offsetInCU: 0x308C, offset: 0x1B716, size: 0x8, addend: 0x0, symName: __ZN4math15rect_tuple_baseILm4ELm4EED0Ev, symObjAddr: 0x740, symBinAddr: 0x100007CC8, symSize: 0x30 }
  - { offsetInCU: 0x30B6, offset: 0x1B740, size: 0x8, addend: 0x0, symName: __ZN4math15rect_tuple_baseILm4ELm4EED2Ev, symObjAddr: 0x770, symBinAddr: 0x100007CF8, symSize: 0x24 }
  - { offsetInCU: 0x30E0, offset: 0x1B76A, size: 0x8, addend: 0x0, symName: __ZN4math11matrix_baseINS_14transformationENS_6vectorELm4EED2Ev, symObjAddr: 0x794, symBinAddr: 0x100007D1C, symSize: 0x2C }
  - { offsetInCU: 0x310C, offset: 0x1B796, size: 0x8, addend: 0x0, symName: __ZN4math15rect_tuple_baseILm4ELm4EEC2ERKu11matrix_typeILm4ELm4EfE, symObjAddr: 0x7C0, symBinAddr: 0x100007D48, symSize: 0x50 }
  - { offsetInCU: 0x3144, offset: 0x1B7CE, size: 0x8, addend: 0x0, symName: __ZN4math15rect_tuple_baseILm4ELm4EEC2IJffffffffffffffffEEEDpT_, symObjAddr: 0x810, symBinAddr: 0x100007D98, symSize: 0x104 }
  - { offsetInCU: 0x32A7, offset: 0x1B931, size: 0x8, addend: 0x0, symName: __ZN4math14transformationD2Ev, symObjAddr: 0x914, symBinAddr: 0x100007E9C, symSize: 0x2C }
  - { offsetInCU: 0x26, offset: 0x1B98D, size: 0x8, addend: 0x0, symName: __ZN4math6vectorC2Ev, symObjAddr: 0x0, symBinAddr: 0x100007EC8, symSize: 0x44 }
  - { offsetInCU: 0x107, offset: 0x1BA6E, size: 0x8, addend: 0x0, symName: __ZN4math3dotERKNS_6vectorES2_, symObjAddr: 0x288, symBinAddr: 0x100008150, symSize: 0xBC }
  - { offsetInCU: 0x141, offset: 0x1BAA8, size: 0x8, addend: 0x0, symName: __ZN4math13sqr_magnitudeERKNS_6vectorE, symObjAddr: 0x368, symBinAddr: 0x10000820C, symSize: 0xB8 }
  - { offsetInCU: 0x17D, offset: 0x1BAE4, size: 0x8, addend: 0x0, symName: __ZN4math9magnitudeERKNS_6vectorE, symObjAddr: 0x420, symBinAddr: 0x1000082C4, symSize: 0xC4 }
  - { offsetInCU: 0x1D8, offset: 0x1BB3F, size: 0x8, addend: 0x0, symName: __ZN4math10normalizedERKNS_6vectorE, symObjAddr: 0x4FC, symBinAddr: 0x100008388, symSize: 0xE8 }
  - { offsetInCU: 0x242, offset: 0x1BBA9, size: 0x8, addend: 0x0, symName: __ZN4mathdvINS_6vectorELm4EEET_RKNS_11linear_baseIS2_XT0_EEEf, symObjAddr: 0x5E4, symBinAddr: 0x100008470, symSize: 0x54 }
  - { offsetInCU: 0x265C, offset: 0x1DFC3, size: 0x8, addend: 0x0, symName: __ZN4math6vectorC2Ev, symObjAddr: 0x0, symBinAddr: 0x100007EC8, symSize: 0x44 }
  - { offsetInCU: 0x2688, offset: 0x1DFEF, size: 0x8, addend: 0x0, symName: __ZN4math11linear_baseINS_6vectorELm4EEC2Ev, symObjAddr: 0x44, symBinAddr: 0x100007F0C, symSize: 0x44 }
  - { offsetInCU: 0x26B2, offset: 0x1E019, size: 0x8, addend: 0x0, symName: __ZN4math6vectorC1Ev, symObjAddr: 0x88, symBinAddr: 0x100007F50, symSize: 0x2C }
  - { offsetInCU: 0x26DE, offset: 0x1E045, size: 0x8, addend: 0x0, symName: __ZN4math6vectorC2ERKDv4_f, symObjAddr: 0xB4, symBinAddr: 0x100007F7C, symSize: 0x4C }
  - { offsetInCU: 0x2718, offset: 0x1E07F, size: 0x8, addend: 0x0, symName: __ZN4math11linear_baseINS_6vectorELm4EEC2ERKDv4_f, symObjAddr: 0x100, symBinAddr: 0x100007FC8, symSize: 0x4C }
  - { offsetInCU: 0x2750, offset: 0x1E0B7, size: 0x8, addend: 0x0, symName: __ZN4math6vectorC1ERKDv4_f, symObjAddr: 0x14C, symBinAddr: 0x100008014, symSize: 0x34 }
  - { offsetInCU: 0x278A, offset: 0x1E0F1, size: 0x8, addend: 0x0, symName: __ZN4math6vectorC2Efff, symObjAddr: 0x180, symBinAddr: 0x100008048, symSize: 0x60 }
  - { offsetInCU: 0x27E0, offset: 0x1E147, size: 0x8, addend: 0x0, symName: __ZN4math11linear_baseINS_6vectorELm4EEC2IJffffEEEDpT_, symObjAddr: 0x1E0, symBinAddr: 0x1000080A8, symSize: 0x64 }
  - { offsetInCU: 0x285C, offset: 0x1E1C3, size: 0x8, addend: 0x0, symName: __ZN4math6vectorC1Efff, symObjAddr: 0x244, symBinAddr: 0x10000810C, symSize: 0x44 }
  - { offsetInCU: 0x3E, offset: 0x1E270, size: 0x8, addend: 0x0, symName: __ZN7graphic5color5WHITEE, symObjAddr: 0x95C0, symBinAddr: 0x100018060, symSize: 0x0 }
  - { offsetInCU: 0x101, offset: 0x1E333, size: 0x8, addend: 0x0, symName: __ZN7graphic5color5BLACKE, symObjAddr: 0x95E0, symBinAddr: 0x100018080, symSize: 0x0 }
  - { offsetInCU: 0x115, offset: 0x1E347, size: 0x8, addend: 0x0, symName: __ZN7graphic5color3REDE, symObjAddr: 0x9600, symBinAddr: 0x1000180A0, symSize: 0x0 }
  - { offsetInCU: 0x12A, offset: 0x1E35C, size: 0x8, addend: 0x0, symName: __ZN7graphic7bits_24ERKNS_5colorE, symObjAddr: 0x334, symBinAddr: 0x1000087F8, symSize: 0x108 }
  - { offsetInCU: 0x156, offset: 0x1E388, size: 0x8, addend: 0x0, symName: __ZN7graphic3mixERKNS_5colorES2_f, symObjAddr: 0x4A4, symBinAddr: 0x100008944, symSize: 0xB8 }
  - { offsetInCU: 0x261, offset: 0x1E493, size: 0x8, addend: 0x0, symName: __ZN4mathplIN7graphic5colorELm4EEET_RKNS_11linear_baseIS3_XT0_EEES7_, symObjAddr: 0x55C, symBinAddr: 0x1000089FC, symSize: 0x98 }
  - { offsetInCU: 0x2FE, offset: 0x1E530, size: 0x8, addend: 0x0, symName: __ZN4mathmlIN7graphic5colorELm4EEET_RKNS_11linear_baseIS3_XT0_EEEf, symObjAddr: 0x5F4, symBinAddr: 0x100008A94, symSize: 0x8C }
  - { offsetInCU: 0x2D38, offset: 0x20F6A, size: 0x8, addend: 0x0, symName: __ZN7graphic5colorC2Ev, symObjAddr: 0x0, symBinAddr: 0x1000084C4, symSize: 0x44 }
  - { offsetInCU: 0x2D5A, offset: 0x20F8C, size: 0x8, addend: 0x0, symName: __ZN4math11linear_baseIN7graphic5colorELm4EEC2Ev, symObjAddr: 0x44, symBinAddr: 0x100008508, symSize: 0x44 }
  - { offsetInCU: 0x2DA5, offset: 0x20FD7, size: 0x8, addend: 0x0, symName: __ZN7graphic5colorC1Ev, symObjAddr: 0x88, symBinAddr: 0x10000854C, symSize: 0x54 }
  - { offsetInCU: 0x2DF0, offset: 0x21022, size: 0x8, addend: 0x0, symName: __ZN7graphic5colorC2ERKDv4_f, symObjAddr: 0xDC, symBinAddr: 0x1000085A0, symSize: 0x4C }
  - { offsetInCU: 0x2E1B, offset: 0x2104D, size: 0x8, addend: 0x0, symName: __ZN4math11linear_baseIN7graphic5colorELm4EEC2ERKDv4_f, symObjAddr: 0x128, symBinAddr: 0x1000085EC, symSize: 0x4C }
  - { offsetInCU: 0x2E7B, offset: 0x210AD, size: 0x8, addend: 0x0, symName: __ZN7graphic5colorC1ERKDv4_f, symObjAddr: 0x174, symBinAddr: 0x100008638, symSize: 0x64 }
  - { offsetInCU: 0x2ECE, offset: 0x21100, size: 0x8, addend: 0x0, symName: __ZN7graphic5colorC2Effff, symObjAddr: 0x1D8, symBinAddr: 0x10000869C, symSize: 0x64 }
  - { offsetInCU: 0x2F14, offset: 0x21146, size: 0x8, addend: 0x0, symName: __ZN4math11linear_baseIN7graphic5colorELm4EEC2IJffffEEEDpT_, symObjAddr: 0x23C, symBinAddr: 0x100008700, symSize: 0x64 }
  - { offsetInCU: 0x2FDC, offset: 0x2120E, size: 0x8, addend: 0x0, symName: __ZN7graphic5colorC1Effff, symObjAddr: 0x2A0, symBinAddr: 0x100008764, symSize: 0x94 }
  - { offsetInCU: 0x310F, offset: 0x21341, size: 0x8, addend: 0x0, symName: __ZNSt3__15tupleIJiiiEEC1B8ue170006IJfffELi0EEEDpOT_, symObjAddr: 0x460, symBinAddr: 0x100008900, symSize: 0x44 }
  - { offsetInCU: 0x31A9, offset: 0x213DB, size: 0x8, addend: 0x0, symName: __ZN7graphic5colorD1Ev, symObjAddr: 0x680, symBinAddr: 0x100008B20, symSize: 0x2C }
  - { offsetInCU: 0x3221, offset: 0x21453, size: 0x8, addend: 0x0, symName: __ZN7graphic5colorD0Ev, symObjAddr: 0x6AC, symBinAddr: 0x100008B4C, symSize: 0x30 }
  - { offsetInCU: 0x324D, offset: 0x2147F, size: 0x8, addend: 0x0, symName: __ZN4math11linear_baseIN7graphic5colorELm4EED1Ev, symObjAddr: 0x700, symBinAddr: 0x100008B7C, symSize: 0x2C }
  - { offsetInCU: 0x3279, offset: 0x214AB, size: 0x8, addend: 0x0, symName: __ZN4math11linear_baseIN7graphic5colorELm4EED0Ev, symObjAddr: 0x72C, symBinAddr: 0x100008BA8, symSize: 0x30 }
  - { offsetInCU: 0x32A5, offset: 0x214D7, size: 0x8, addend: 0x0, symName: __ZN4math11linear_baseIN7graphic5colorELm4EED2Ev, symObjAddr: 0x7DC, symBinAddr: 0x100008BD8, symSize: 0x2C }
  - { offsetInCU: 0x32D1, offset: 0x21503, size: 0x8, addend: 0x0, symName: __ZNSt3__15tupleIJiiiEEC2B8ue170006IJfffELi0EEEDpOT_, symObjAddr: 0x808, symBinAddr: 0x100008C04, symSize: 0x44 }
  - { offsetInCU: 0x3343, offset: 0x21575, size: 0x8, addend: 0x0, symName: __ZNSt3__112__tuple_implINS_15__tuple_indicesIJLm0ELm1ELm2EEEEJiiiEEC1B8ue170006IJLm0ELm1ELm2EEJiiiEJEJEJfffEEENS1_IJXspT_EEEENS_13__tuple_typesIJDpT0_EEENS1_IJXspT1_EEEENS6_IJDpT2_EEEDpOT3_, symObjAddr: 0x84C, symBinAddr: 0x100008C48, symSize: 0x44 }
  - { offsetInCU: 0x3419, offset: 0x2164B, size: 0x8, addend: 0x0, symName: __ZNSt3__112__tuple_implINS_15__tuple_indicesIJLm0ELm1ELm2EEEEJiiiEEC2B8ue170006IJLm0ELm1ELm2EEJiiiEJEJEJfffEEENS1_IJXspT_EEEENS_13__tuple_typesIJDpT0_EEENS1_IJXspT1_EEEENS6_IJDpT2_EEEDpOT3_, symObjAddr: 0x890, symBinAddr: 0x100008C8C, symSize: 0x5C }
  - { offsetInCU: 0x34EF, offset: 0x21721, size: 0x8, addend: 0x0, symName: __ZNSt3__112__tuple_leafILm0EiLb0EEC2B8ue170006IfvEEOT_, symObjAddr: 0x8EC, symBinAddr: 0x100008CE8, symSize: 0x28 }
  - { offsetInCU: 0x3532, offset: 0x21764, size: 0x8, addend: 0x0, symName: __ZNSt3__112__tuple_leafILm1EiLb0EEC2B8ue170006IfvEEOT_, symObjAddr: 0x914, symBinAddr: 0x100008D10, symSize: 0x28 }
  - { offsetInCU: 0x3575, offset: 0x217A7, size: 0x8, addend: 0x0, symName: __ZNSt3__112__tuple_leafILm2EiLb0EEC2B8ue170006IfvEEOT_, symObjAddr: 0x93C, symBinAddr: 0x100008D38, symSize: 0x28 }
  - { offsetInCU: 0x35B8, offset: 0x217EA, size: 0x8, addend: 0x0, symName: __ZN7graphic5colorD2Ev, symObjAddr: 0x964, symBinAddr: 0x100008D60, symSize: 0x2C }
  - { offsetInCU: 0xE59C, offset: 0x2FDDF, size: 0x8, addend: 0x0, symName: __ZNSt3__17advanceB8ue170006IPN7graphic5colorEllvEEvRT_T0_, symObjAddr: 0x254C, symBinAddr: 0x10000B024, symSize: 0x38 }
  - { offsetInCU: 0xE81D, offset: 0x30060, size: 0x8, addend: 0x0, symName: __ZNSt3__17advanceB8ue170006INS_16reverse_iteratorIPN7graphic5colorEEEllvEEvRT_T0_, symObjAddr: 0x2990, symBinAddr: 0x10000B3F0, symSize: 0x38 }
  - { offsetInCU: 0x10C00, offset: 0x32443, size: 0x8, addend: 0x0, symName: __ZNSt3__1lsB8ue170006INS_11char_traitsIcEEEERNS_13basic_ostreamIcT_EES6_c, symObjAddr: 0x898, symBinAddr: 0x10000979C, symSize: 0x34 }
  - { offsetInCU: 0x10C46, offset: 0x32489, size: 0x8, addend: 0x0, symName: __ZNSt3__1neB8ue170006IPKN7graphic5colorEEEbRKNS_11__wrap_iterIT_EES9_, symObjAddr: 0x92C, symBinAddr: 0x100009830, symSize: 0x34 }
  - { offsetInCU: 0x10C89, offset: 0x324CC, size: 0x8, addend: 0x0, symName: __ZNSt3__13getB8ue170006ILm0EJiiiEEEONS_13tuple_elementIXT_ENS_5tupleIJDpT0_EEEE4typeEOS5_, symObjAddr: 0x978, symBinAddr: 0x10000987C, symSize: 0x24 }
  - { offsetInCU: 0x10CD6, offset: 0x32519, size: 0x8, addend: 0x0, symName: __ZNSt3__13getB8ue170006ILm1EJiiiEEEONS_13tuple_elementIXT_ENS_5tupleIJDpT0_EEEE4typeEOS5_, symObjAddr: 0x99C, symBinAddr: 0x1000098A0, symSize: 0x28 }
  - { offsetInCU: 0x10D23, offset: 0x32566, size: 0x8, addend: 0x0, symName: __ZNSt3__13getB8ue170006ILm2EJiiiEEEONS_13tuple_elementIXT_ENS_5tupleIJDpT0_EEEE4typeEOS5_, symObjAddr: 0x9C4, symBinAddr: 0x1000098C8, symSize: 0x28 }
  - { offsetInCU: 0x10DA2, offset: 0x325E5, size: 0x8, addend: 0x0, symName: __ZNSt3__112construct_atB8ue170006IN7graphic5colorEJEPS2_EEPT_S5_DpOT0_, symObjAddr: 0x129C, symBinAddr: 0x10000A130, symSize: 0x34 }
  - { offsetInCU: 0x10E00, offset: 0x32643, size: 0x8, addend: 0x0, symName: __ZNSt3__13maxB8ue170006ImEERKT_S3_S3_, symObjAddr: 0x13E4, symBinAddr: 0x10000A200, symSize: 0x2C }
  - { offsetInCU: 0x10E43, offset: 0x32686, size: 0x8, addend: 0x0, symName: __ZNSt3__13minB8ue170006ImEERKT_S3_S3_, symObjAddr: 0x1410, symBinAddr: 0x10000A22C, symSize: 0x2C }
  - { offsetInCU: 0x11070, offset: 0x328B3, size: 0x8, addend: 0x0, symName: __ZNSt3__13minB8ue170006ImNS_6__lessIvvEEEERKT_S5_S5_T0_, symObjAddr: 0x14A0, symBinAddr: 0x10000A2BC, symSize: 0x54 }
  - { offsetInCU: 0x112FE, offset: 0x32B41, size: 0x8, addend: 0x0, symName: __ZNSt3__120__throw_length_errorB8ue170006EPKc, symObjAddr: 0x1584, symBinAddr: 0x10000A3A0, symSize: 0x64 }
  - { offsetInCU: 0x11329, offset: 0x32B6C, size: 0x8, addend: 0x0, symName: __ZNSt3__13maxB8ue170006ImNS_6__lessIvvEEEERKT_S5_S5_T0_, symObjAddr: 0x16C8, symBinAddr: 0x10000A484, symSize: 0x54 }
  - { offsetInCU: 0x11383, offset: 0x32BC6, size: 0x8, addend: 0x0, symName: __ZNSt3__119__allocate_at_leastB8ue170006INS_9allocatorIN7graphic5colorEEEEEDaRT_m, symObjAddr: 0x182C, symBinAddr: 0x10000A5E8, symSize: 0x3C }
  - { offsetInCU: 0x113C6, offset: 0x32C09, size: 0x8, addend: 0x0, symName: __ZNSt3__117allocate_at_leastB8ue170006INS_9allocatorIN7graphic5colorEEEEENS_17allocation_resultINS_16allocator_traitsIT_E7pointerEEERS7_m, symObjAddr: 0x1920, symBinAddr: 0x10000A6DC, symSize: 0x3C }
  - { offsetInCU: 0x11409, offset: 0x32C4C, size: 0x8, addend: 0x0, symName: __ZNSt3__117__libcpp_allocateB8ue170006Emm, symObjAddr: 0x1A28, symBinAddr: 0x10000A7E4, symSize: 0x60 }
  - { offsetInCU: 0x11463, offset: 0x32CA6, size: 0x8, addend: 0x0, symName: __ZNSt3__121__libcpp_operator_newB8ue170006IJmSt11align_val_tEEEPvDpT_, symObjAddr: 0x1AA8, symBinAddr: 0x10000A844, symSize: 0x2C }
  - { offsetInCU: 0x114B0, offset: 0x32CF3, size: 0x8, addend: 0x0, symName: __ZNSt3__121__libcpp_operator_newB8ue170006IJmEEEPvDpT_, symObjAddr: 0x1AD4, symBinAddr: 0x10000A870, symSize: 0x24 }
  - { offsetInCU: 0x114E9, offset: 0x32D2C, size: 0x8, addend: 0x0, symName: __ZNSt3__142__uninitialized_allocator_move_if_noexceptB8ue170006INS_9allocatorIN7graphic5colorEEENS_16reverse_iteratorIPS3_EES7_S7_EET2_RT_T0_T1_S8_, symObjAddr: 0x1CE0, symBinAddr: 0x10000A9C4, symSize: 0x12C }
  - { offsetInCU: 0x11589, offset: 0x32DCC, size: 0x8, addend: 0x0, symName: __ZNSt3__14swapB8ue170006IPN7graphic5colorEEENS_9enable_ifIXaasr21is_move_constructibleIT_EE5valuesr18is_move_assignableIS5_EE5valueEvE4typeERS5_S8_, symObjAddr: 0x1E58, symBinAddr: 0x10000AB3C, symSize: 0x3C }
  - { offsetInCU: 0x115DB, offset: 0x32E1E, size: 0x8, addend: 0x0, symName: __ZNSt3__122__make_exception_guardB8ue170006INS_29_AllocatorDestroyRangeReverseINS_9allocatorIN7graphic5colorEEENS_16reverse_iteratorIPS4_EEEEEENS_28__exception_guard_exceptionsIT_EESB_, symObjAddr: 0x1F88, symBinAddr: 0x10000AC24, symSize: 0x4C }
  - { offsetInCU: 0x11611, offset: 0x32E54, size: 0x8, addend: 0x0, symName: __ZNSt3__1neB8ue170006IPN7graphic5colorES3_EEbRKNS_16reverse_iteratorIT_EERKNS4_IT0_EE, symObjAddr: 0x2018, symBinAddr: 0x10000ACB4, symSize: 0x48 }
  - { offsetInCU: 0x1165D, offset: 0x32EA0, size: 0x8, addend: 0x0, symName: __ZNSt3__112__to_addressB8ue170006INS_16reverse_iteratorIPN7graphic5colorEEEvEEu7__decayIDTclsr19__to_address_helperIT_EE6__callclsr3stdE7declvalIRKS6_EEEEES8_, symObjAddr: 0x2090, symBinAddr: 0x10000AD2C, symSize: 0x24 }
  - { offsetInCU: 0x11693, offset: 0x32ED6, size: 0x8, addend: 0x0, symName: __ZNSt3__112construct_atB8ue170006IN7graphic5colorEJS2_EPS2_EEPT_S5_DpOT0_, symObjAddr: 0x21E0, symBinAddr: 0x10000AE7C, symSize: 0x3C }
  - { offsetInCU: 0x1172F, offset: 0x32F72, size: 0x8, addend: 0x0, symName: __ZNSt3__14prevB8ue170006IPN7graphic5colorEEENS_9enable_ifIXsr29__has_input_iterator_categoryIT_EE5valueES5_E4typeES5_NS_15iterator_traitsIS5_E15difference_typeE, symObjAddr: 0x2510, symBinAddr: 0x10000AFE8, symSize: 0x3C }
  - { offsetInCU: 0x11772, offset: 0x32FB5, size: 0x8, addend: 0x0, symName: __ZNSt3__121__convert_to_integralB8ue170006El, symObjAddr: 0x2584, symBinAddr: 0x10000B05C, symSize: 0x14 }
  - { offsetInCU: 0x1179E, offset: 0x32FE1, size: 0x8, addend: 0x0, symName: __ZNSt3__19__advanceB8ue170006IPN7graphic5colorEEEvRT_NS_15iterator_traitsIS4_E15difference_typeENS_26random_access_iterator_tagE, symObjAddr: 0x2598, symBinAddr: 0x10000B070, symSize: 0x28 }
  - { offsetInCU: 0x117E9, offset: 0x3302C, size: 0x8, addend: 0x0, symName: __ZNSt3__119__allocator_destroyB8ue170006INS_9allocatorIN7graphic5colorEEENS_16reverse_iteratorINS5_IPS3_EEEES8_EEvRT_T0_T1_, symObjAddr: 0x26C4, symBinAddr: 0x10000B19C, symSize: 0x70 }
  - { offsetInCU: 0x1184E, offset: 0x33091, size: 0x8, addend: 0x0, symName: __ZNSt3__1neB8ue170006INS_16reverse_iteratorIPN7graphic5colorEEES5_EEbRKNS1_IT_EERKNS1_IT0_EE, symObjAddr: 0x2770, symBinAddr: 0x10000B248, symSize: 0x60 }
  - { offsetInCU: 0x1189A, offset: 0x330DD, size: 0x8, addend: 0x0, symName: __ZNSt3__112__to_addressB8ue170006INS_16reverse_iteratorINS1_IPN7graphic5colorEEEEEvEEu7__decayIDTclsr19__to_address_helperIT_EE6__callclsr3stdE7declvalIRKS7_EEEEES9_, symObjAddr: 0x27F8, symBinAddr: 0x10000B2A8, symSize: 0x24 }
  - { offsetInCU: 0x118FA, offset: 0x3313D, size: 0x8, addend: 0x0, symName: __ZNSt3__14prevB8ue170006INS_16reverse_iteratorIPN7graphic5colorEEEEENS_9enable_ifIXsr29__has_input_iterator_categoryIT_EE5valueES7_E4typeES7_NS_15iterator_traitsIS7_E15difference_typeE, symObjAddr: 0x2944, symBinAddr: 0x10000B3A4, symSize: 0x4C }
  - { offsetInCU: 0x1193D, offset: 0x33180, size: 0x8, addend: 0x0, symName: __ZNSt3__19__advanceB8ue170006INS_16reverse_iteratorIPN7graphic5colorEEEEEvRT_NS_15iterator_traitsIS6_E15difference_typeENS_26random_access_iterator_tagE, symObjAddr: 0x29C8, symBinAddr: 0x10000B428, symSize: 0x2C }
  - { offsetInCU: 0x11987, offset: 0x331CA, size: 0x8, addend: 0x0, symName: __ZNSt3__122__make_exception_guardB8ue170006INS_6vectorIN7graphic5colorENS_9allocatorIS3_EEE16__destroy_vectorEEENS_28__exception_guard_exceptionsIT_EES9_, symObjAddr: 0x3284, symBinAddr: 0x10000B98C, symSize: 0x40 }
  - { offsetInCU: 0x119BC, offset: 0x331FF, size: 0x8, addend: 0x0, symName: __ZNSt3__130__uninitialized_allocator_copyB8ue170006INS_9allocatorIN7graphic5colorEEEPS3_S5_S5_EET2_RT_T0_T1_S6_, symObjAddr: 0x349C, symBinAddr: 0x10000BBA4, symSize: 0x80 }
  - { offsetInCU: 0x11A59, offset: 0x3329C, size: 0x8, addend: 0x0, symName: __ZNSt3__114__unwrap_rangeB8ue170006IPN7graphic5colorES3_EEDaT_T0_, symObjAddr: 0x351C, symBinAddr: 0x10000BC24, symSize: 0x3C }
  - { offsetInCU: 0x11AA5, offset: 0x332E8, size: 0x8, addend: 0x0, symName: __ZNSt3__135__uninitialized_allocator_copy_implB8ue170006INS_9allocatorIN7graphic5colorEEEPS3_S5_S5_EET2_RT_T0_T1_S6_, symObjAddr: 0x3558, symBinAddr: 0x10000BC60, symSize: 0xF4 }
  - { offsetInCU: 0x11B43, offset: 0x33386, size: 0x8, addend: 0x0, symName: __ZNSt3__113__unwrap_iterB8ue170006IPN7graphic5colorENS_18__unwrap_iter_implIS3_Lb1EEELi0EEEDTclsrT0_8__unwrapclsr3stdE7declvalIT_EEEES7_, symObjAddr: 0x364C, symBinAddr: 0x10000BD54, symSize: 0x24 }
  - { offsetInCU: 0x11B87, offset: 0x333CA, size: 0x8, addend: 0x0, symName: __ZNSt3__113__rewrap_iterB8ue170006IPN7graphic5colorES3_NS_18__unwrap_iter_implIS3_Lb1EEEEET_S6_T0_, symObjAddr: 0x3670, symBinAddr: 0x10000BD78, symSize: 0x3C }
  - { offsetInCU: 0x11D2C, offset: 0x3356F, size: 0x8, addend: 0x0, symName: __ZNSt3__122__make_exception_guardB8ue170006INS_29_AllocatorDestroyRangeReverseINS_9allocatorIN7graphic5colorEEEPS4_EEEENS_28__exception_guard_exceptionsIT_EES9_, symObjAddr: 0x3774, symBinAddr: 0x10000BE7C, symSize: 0x4C }
  - { offsetInCU: 0x11D62, offset: 0x335A5, size: 0x8, addend: 0x0, symName: __ZNSt3__112construct_atB8ue170006IN7graphic5colorEJRS2_EPS2_EEPT_S6_DpOT0_, symObjAddr: 0x3918, symBinAddr: 0x10000C020, symSize: 0x3C }
  - { offsetInCU: 0x11DD4, offset: 0x33617, size: 0x8, addend: 0x0, symName: __ZNSt3__119__allocator_destroyB8ue170006INS_9allocatorIN7graphic5colorEEENS_16reverse_iteratorIPS3_EES7_EEvRT_T0_T1_, symObjAddr: 0x3AD8, symBinAddr: 0x10000C1E0, symSize: 0x70 }
  - { offsetInCU: 0x11E8B, offset: 0x336CE, size: 0x8, addend: 0x0, symName: __ZNSt3__1eqB8ue170006IPKN7graphic5colorEEEbRKNS_11__wrap_iterIT_EES9_, symObjAddr: 0x3D4C, symBinAddr: 0x10000C454, symSize: 0x48 }
  - { offsetInCU: 0x11ECE, offset: 0x33711, size: 0x8, addend: 0x0, symName: __ZNSt3__112__to_addressB8ue170006IKcEEPT_S3_, symObjAddr: 0x4044, symBinAddr: 0x10000C718, symSize: 0x14 }
  - { offsetInCU: 0x1240D, offset: 0x33C50, size: 0x8, addend: 0x0, symName: __ZSt28__throw_bad_array_new_lengthB8ue170006v, symObjAddr: 0x19F4, symBinAddr: 0x10000A7B0, symSize: 0x34 }
  - { offsetInCU: 0x12FC9, offset: 0x3480C, size: 0x8, addend: 0x0, symName: __ZNSt3__16vectorIN7graphic5colorENS_9allocatorIS2_EEE26__swap_out_circular_bufferERNS_14__split_bufferIS2_RS4_EE, symObjAddr: 0x1040, symBinAddr: 0x100009EE8, symSize: 0x110 }
  - { offsetInCU: 0x14EFC, offset: 0x3673F, size: 0x8, addend: 0x0, symName: __ZN7graphic5imageC2Emm, symObjAddr: 0x0, symBinAddr: 0x100008F78, symSize: 0x8C }
  - { offsetInCU: 0x14F44, offset: 0x36787, size: 0x8, addend: 0x0, symName: __ZNSt3__16vectorIN7graphic5colorENS_9allocatorIS2_EEEC1B8ue170006Ev, symObjAddr: 0x8C, symBinAddr: 0x100009004, symSize: 0x2C }
  - { offsetInCU: 0x14F6E, offset: 0x367B1, size: 0x8, addend: 0x0, symName: __ZNSt3__16vectorIN7graphic5colorENS_9allocatorIS2_EEE6resizeEm, symObjAddr: 0xB8, symBinAddr: 0x100009030, symSize: 0x94 }
  - { offsetInCU: 0x14FB4, offset: 0x367F7, size: 0x8, addend: 0x0, symName: __ZN7graphic5imageC1Emm, symObjAddr: 0x178, symBinAddr: 0x1000090C4, symSize: 0x3C }
  - { offsetInCU: 0x14FFC, offset: 0x3683F, size: 0x8, addend: 0x0, symName: __ZN7graphic5imageC2ERKS0_, symObjAddr: 0x1B4, symBinAddr: 0x100009100, symSize: 0x54 }
  - { offsetInCU: 0x15036, offset: 0x36879, size: 0x8, addend: 0x0, symName: __ZNSt3__16vectorIN7graphic5colorENS_9allocatorIS2_EEEC1ERKS5_, symObjAddr: 0x208, symBinAddr: 0x100009154, symSize: 0x34 }
  - { offsetInCU: 0x15071, offset: 0x368B4, size: 0x8, addend: 0x0, symName: __ZN7graphic5imageC1ERKS0_, symObjAddr: 0x23C, symBinAddr: 0x100009188, symSize: 0x34 }
  - { offsetInCU: 0x150AB, offset: 0x368EE, size: 0x8, addend: 0x0, symName: __ZN7graphic5imageC2EOS0_, symObjAddr: 0x270, symBinAddr: 0x1000091BC, symSize: 0x54 }
  - { offsetInCU: 0x150E5, offset: 0x36928, size: 0x8, addend: 0x0, symName: __ZNSt3__16vectorIN7graphic5colorENS_9allocatorIS2_EEEC1B8ue170006EOS5_, symObjAddr: 0x2C4, symBinAddr: 0x100009210, symSize: 0x34 }
  - { offsetInCU: 0x15120, offset: 0x36963, size: 0x8, addend: 0x0, symName: __ZN7graphic5imageC1EOS0_, symObjAddr: 0x2F8, symBinAddr: 0x100009244, symSize: 0x34 }
  - { offsetInCU: 0x1515A, offset: 0x3699D, size: 0x8, addend: 0x0, symName: __ZNK7graphic5image5pixelEmm, symObjAddr: 0x32C, symBinAddr: 0x100009278, symSize: 0x44 }
  - { offsetInCU: 0x1519E, offset: 0x369E1, size: 0x8, addend: 0x0, symName: __ZNKSt3__16vectorIN7graphic5colorENS_9allocatorIS2_EEEixB8ue170006Em, symObjAddr: 0x370, symBinAddr: 0x1000092BC, symSize: 0x24 }
  - { offsetInCU: 0x151D5, offset: 0x36A18, size: 0x8, addend: 0x0, symName: __ZN7graphic5image5pixelEmm, symObjAddr: 0x394, symBinAddr: 0x1000092E0, symSize: 0x44 }
  - { offsetInCU: 0x15219, offset: 0x36A5C, size: 0x8, addend: 0x0, symName: __ZNSt3__16vectorIN7graphic5colorENS_9allocatorIS2_EEEixB8ue170006Em, symObjAddr: 0x3D8, symBinAddr: 0x100009324, symSize: 0x24 }
  - { offsetInCU: 0x15250, offset: 0x36A93, size: 0x8, addend: 0x0, symName: __ZNK7graphic5image4saveERKNSt3__112basic_stringIcNS1_11char_traitsIcEENS1_9allocatorIcEEEE, symObjAddr: 0x3FC, symBinAddr: 0x100009348, symSize: 0x2BC }
  - { offsetInCU: 0x153CA, offset: 0x36C0D, size: 0x8, addend: 0x0, symName: __ZNSt3__114basic_ofstreamIcNS_11char_traitsIcEEEC1ERKNS_12basic_stringIcS2_NS_9allocatorIcEEEEj, symObjAddr: 0x6B8, symBinAddr: 0x100009604, symSize: 0x16C }
  - { offsetInCU: 0x15414, offset: 0x36C57, size: 0x8, addend: 0x0, symName: __ZNKSt3__114basic_ofstreamIcNS_11char_traitsIcEEE7is_openEv, symObjAddr: 0x824, symBinAddr: 0x100009770, symSize: 0x2C }
  - { offsetInCU: 0x1543C, offset: 0x36C7F, size: 0x8, addend: 0x0, symName: __ZNKSt3__16vectorIN7graphic5colorENS_9allocatorIS2_EEE5beginB8ue170006Ev, symObjAddr: 0x8CC, symBinAddr: 0x1000097D0, symSize: 0x30 }
  - { offsetInCU: 0x15464, offset: 0x36CA7, size: 0x8, addend: 0x0, symName: __ZNKSt3__16vectorIN7graphic5colorENS_9allocatorIS2_EEE3endB8ue170006Ev, symObjAddr: 0x8FC, symBinAddr: 0x100009800, symSize: 0x30 }
  - { offsetInCU: 0x1548C, offset: 0x36CCF, size: 0x8, addend: 0x0, symName: __ZNKSt3__111__wrap_iterIPKN7graphic5colorEEdeB8ue170006Ev, symObjAddr: 0x960, symBinAddr: 0x100009864, symSize: 0x18 }
  - { offsetInCU: 0x154B2, offset: 0x36CF5, size: 0x8, addend: 0x0, symName: __ZNSt3__111__wrap_iterIPKN7graphic5colorEEppB8ue170006Ev, symObjAddr: 0x9EC, symBinAddr: 0x1000098F0, symSize: 0x20 }
  - { offsetInCU: 0x154D8, offset: 0x36D1B, size: 0x8, addend: 0x0, symName: __ZNSt3__114basic_ofstreamIcNS_11char_traitsIcEEE5closeEv, symObjAddr: 0xA0C, symBinAddr: 0x100009910, symSize: 0x58 }
  - { offsetInCU: 0x15505, offset: 0x36D48, size: 0x8, addend: 0x0, symName: __ZNSt3__114basic_ofstreamIcNS_11char_traitsIcEEED1Ev, symObjAddr: 0xA64, symBinAddr: 0x100009968, symSize: 0x40 }
  - { offsetInCU: 0x15532, offset: 0x36D75, size: 0x8, addend: 0x0, symName: __ZNSt3__16vectorIN7graphic5colorENS_9allocatorIS2_EEEC2B8ue170006Ev, symObjAddr: 0xAA4, symBinAddr: 0x1000099A8, symSize: 0x4C }
  - { offsetInCU: 0x15566, offset: 0x36DA9, size: 0x8, addend: 0x0, symName: __ZNSt3__117__compressed_pairIPN7graphic5colorENS_9allocatorIS2_EEEC1B8ue170006IDnNS_18__default_init_tagEEEOT_OT0_, symObjAddr: 0xAF0, symBinAddr: 0x1000099F4, symSize: 0x3C }
  - { offsetInCU: 0x155BE, offset: 0x36E01, size: 0x8, addend: 0x0, symName: __ZNSt3__117__compressed_pairIPN7graphic5colorENS_9allocatorIS2_EEEC2B8ue170006IDnNS_18__default_init_tagEEEOT_OT0_, symObjAddr: 0xB38, symBinAddr: 0x100009A30, symSize: 0x40 }
  - { offsetInCU: 0x15616, offset: 0x36E59, size: 0x8, addend: 0x0, symName: __ZNSt3__122__compressed_pair_elemIPN7graphic5colorELi0ELb0EEC2B8ue170006IDnvEEOT_, symObjAddr: 0xB78, symBinAddr: 0x100009A70, symSize: 0x1C }
  - { offsetInCU: 0x15658, offset: 0x36E9B, size: 0x8, addend: 0x0, symName: __ZNSt3__122__compressed_pair_elemINS_9allocatorIN7graphic5colorEEELi1ELb1EEC2B8ue170006ENS_18__default_init_tagE, symObjAddr: 0xB94, symBinAddr: 0x100009A8C, symSize: 0x2C }
  - { offsetInCU: 0x1568D, offset: 0x36ED0, size: 0x8, addend: 0x0, symName: __ZNSt3__19allocatorIN7graphic5colorEEC2B8ue170006Ev, symObjAddr: 0xBC0, symBinAddr: 0x100009AB8, symSize: 0x2C }
  - { offsetInCU: 0x156B7, offset: 0x36EFA, size: 0x8, addend: 0x0, symName: __ZNSt3__116__non_trivial_ifILb1ENS_9allocatorIN7graphic5colorEEEEC2B8ue170006Ev, symObjAddr: 0xBEC, symBinAddr: 0x100009AE4, symSize: 0x14 }
  - { offsetInCU: 0x156E1, offset: 0x36F24, size: 0x8, addend: 0x0, symName: __ZNSt3__16vectorIN7graphic5colorENS_9allocatorIS2_EEE8__appendEm, symObjAddr: 0xC28, symBinAddr: 0x100009AF8, symSize: 0x108 }
  - { offsetInCU: 0x1573C, offset: 0x36F7F, size: 0x8, addend: 0x0, symName: __ZNSt3__16vectorIN7graphic5colorENS_9allocatorIS2_EEE17__destruct_at_endB8ue170006EPS2_, symObjAddr: 0xD30, symBinAddr: 0x100009C00, symSize: 0x4C }
  - { offsetInCU: 0x15780, offset: 0x36FC3, size: 0x8, addend: 0x0, symName: __ZNSt3__16vectorIN7graphic5colorENS_9allocatorIS2_EEE9__end_capB8ue170006Ev, symObjAddr: 0xD7C, symBinAddr: 0x100009C4C, symSize: 0x28 }
  - { offsetInCU: 0x157A6, offset: 0x36FE9, size: 0x8, addend: 0x0, symName: __ZNSt3__16vectorIN7graphic5colorENS_9allocatorIS2_EEE18__construct_at_endEm, symObjAddr: 0xDA4, symBinAddr: 0x100009C74, symSize: 0xC8 }
  - { offsetInCU: 0x15818, offset: 0x3705B, size: 0x8, addend: 0x0, symName: __ZNKSt3__16vectorIN7graphic5colorENS_9allocatorIS2_EEE11__recommendB8ue170006Em, symObjAddr: 0xE94, symBinAddr: 0x100009D3C, symSize: 0xB4 }
  - { offsetInCU: 0x1586D, offset: 0x370B0, size: 0x8, addend: 0x0, symName: __ZNSt3__114__split_bufferIN7graphic5colorERNS_9allocatorIS2_EEEC1EmmS5_, symObjAddr: 0xF48, symBinAddr: 0x100009DF0, symSize: 0x44 }
  - { offsetInCU: 0x158C3, offset: 0x37106, size: 0x8, addend: 0x0, symName: __ZNSt3__114__split_bufferIN7graphic5colorERNS_9allocatorIS2_EEE18__construct_at_endEm, symObjAddr: 0xF8C, symBinAddr: 0x100009E34, symSize: 0xB4 }
  - { offsetInCU: 0x15908, offset: 0x3714B, size: 0x8, addend: 0x0, symName: __ZNSt3__114__split_bufferIN7graphic5colorERNS_9allocatorIS2_EEED1Ev, symObjAddr: 0x1150, symBinAddr: 0x100009FF8, symSize: 0x2C }
  - { offsetInCU: 0x15934, offset: 0x37177, size: 0x8, addend: 0x0, symName: __ZNSt3__117__compressed_pairIPN7graphic5colorENS_9allocatorIS2_EEE5firstB8ue170006Ev, symObjAddr: 0x117C, symBinAddr: 0x10000A024, symSize: 0x24 }
  - { offsetInCU: 0x1595A, offset: 0x3719D, size: 0x8, addend: 0x0, symName: __ZNSt3__122__compressed_pair_elemIPN7graphic5colorELi0ELb0EE5__getB8ue170006Ev, symObjAddr: 0x11A0, symBinAddr: 0x10000A048, symSize: 0x14 }
  - { offsetInCU: 0x15999, offset: 0x371DC, size: 0x8, addend: 0x0, symName: __ZNSt3__16vectorIN7graphic5colorENS_9allocatorIS2_EEE21_ConstructTransactionC1B8ue170006ERS5_m, symObjAddr: 0x11B4, symBinAddr: 0x10000A05C, symSize: 0x3C }
  - { offsetInCU: 0x159E1, offset: 0x37224, size: 0x8, addend: 0x0, symName: __ZNSt3__116allocator_traitsINS_9allocatorIN7graphic5colorEEEE9constructB8ue170006IS3_JEvvEEvRS4_PT_DpOT0_, symObjAddr: 0x11F0, symBinAddr: 0x10000A098, symSize: 0x28 }
  - { offsetInCU: 0x15A21, offset: 0x37264, size: 0x8, addend: 0x0, symName: __ZNSt3__16vectorIN7graphic5colorENS_9allocatorIS2_EEE21_ConstructTransactionD1B8ue170006Ev, symObjAddr: 0x122C, symBinAddr: 0x10000A0C0, symSize: 0x2C }
  - { offsetInCU: 0x15A4B, offset: 0x3728E, size: 0x8, addend: 0x0, symName: __ZNSt3__16vectorIN7graphic5colorENS_9allocatorIS2_EEE21_ConstructTransactionC2B8ue170006ERS5_m, symObjAddr: 0x1258, symBinAddr: 0x10000A0EC, symSize: 0x44 }
  - { offsetInCU: 0x15A93, offset: 0x372D6, size: 0x8, addend: 0x0, symName: __ZNSt3__16vectorIN7graphic5colorENS_9allocatorIS2_EEE21_ConstructTransactionD2B8ue170006Ev, symObjAddr: 0x12D0, symBinAddr: 0x10000A164, symSize: 0x20 }
  - { offsetInCU: 0x15ABD, offset: 0x37300, size: 0x8, addend: 0x0, symName: __ZNKSt3__16vectorIN7graphic5colorENS_9allocatorIS2_EEE8max_sizeEv, symObjAddr: 0x1328, symBinAddr: 0x10000A184, symSize: 0x60 }
  - { offsetInCU: 0x15AE5, offset: 0x37328, size: 0x8, addend: 0x0, symName: __ZNKSt3__16vectorIN7graphic5colorENS_9allocatorIS2_EEE20__throw_length_errorB8ue170006Ev, symObjAddr: 0x1388, symBinAddr: 0x10000A1E4, symSize: 0x1C }
  - { offsetInCU: 0x15B15, offset: 0x37358, size: 0x8, addend: 0x0, symName: __ZNSt3__116allocator_traitsINS_9allocatorIN7graphic5colorEEEE8max_sizeB8ue170006IS4_vvEEmRKS4_, symObjAddr: 0x143C, symBinAddr: 0x10000A258, symSize: 0x28 }
  - { offsetInCU: 0x15B41, offset: 0x37384, size: 0x8, addend: 0x0, symName: __ZNKSt3__16vectorIN7graphic5colorENS_9allocatorIS2_EEE7__allocB8ue170006Ev, symObjAddr: 0x1464, symBinAddr: 0x10000A280, symSize: 0x28 }
  - { offsetInCU: 0x15B67, offset: 0x373AA, size: 0x8, addend: 0x0, symName: __ZNSt3__114numeric_limitsIlE3maxB8ue170006Ev, symObjAddr: 0x148C, symBinAddr: 0x10000A2A8, symSize: 0x14 }
  - { offsetInCU: 0x15B8F, offset: 0x373D2, size: 0x8, addend: 0x0, symName: __ZNKSt3__16__lessIvvEclB8ue170006ImmEEbRKT_RKT0_, symObjAddr: 0x14F4, symBinAddr: 0x10000A310, symSize: 0x34 }
  - { offsetInCU: 0x15BE3, offset: 0x37426, size: 0x8, addend: 0x0, symName: __ZNSt3__114numeric_limitsImE3maxB8ue170006Ev, symObjAddr: 0x1528, symBinAddr: 0x10000A344, symSize: 0x14 }
  - { offsetInCU: 0x15BF7, offset: 0x3743A, size: 0x8, addend: 0x0, symName: __ZNSt3__123__libcpp_numeric_limitsImLb1EE3maxB8ue170006Ev, symObjAddr: 0x153C, symBinAddr: 0x10000A358, symSize: 0x8 }
  - { offsetInCU: 0x15C0B, offset: 0x3744E, size: 0x8, addend: 0x0, symName: __ZNKSt3__117__compressed_pairIPN7graphic5colorENS_9allocatorIS2_EEE6secondB8ue170006Ev, symObjAddr: 0x1544, symBinAddr: 0x10000A360, symSize: 0x24 }
  - { offsetInCU: 0x15C31, offset: 0x37474, size: 0x8, addend: 0x0, symName: __ZNKSt3__122__compressed_pair_elemINS_9allocatorIN7graphic5colorEEELi1ELb1EE5__getB8ue170006Ev, symObjAddr: 0x1568, symBinAddr: 0x10000A384, symSize: 0x14 }
  - { offsetInCU: 0x15C57, offset: 0x3749A, size: 0x8, addend: 0x0, symName: __ZNSt3__123__libcpp_numeric_limitsIlLb1EE3maxB8ue170006Ev, symObjAddr: 0x157C, symBinAddr: 0x10000A398, symSize: 0x8 }
  - { offsetInCU: 0x15C6B, offset: 0x374AE, size: 0x8, addend: 0x0, symName: __ZNSt12length_errorC1B8ue170006EPKc, symObjAddr: 0x15E8, symBinAddr: 0x10000A404, symSize: 0x34 }
  - { offsetInCU: 0x15CA3, offset: 0x374E6, size: 0x8, addend: 0x0, symName: __ZNSt12length_errorC2B8ue170006EPKc, symObjAddr: 0x161C, symBinAddr: 0x10000A438, symSize: 0x4C }
  - { offsetInCU: 0x15CDB, offset: 0x3751E, size: 0x8, addend: 0x0, symName: __ZNSt3__114__split_bufferIN7graphic5colorERNS_9allocatorIS2_EEEC2EmmS5_, symObjAddr: 0x171C, symBinAddr: 0x10000A4D8, symSize: 0xD4 }
  - { offsetInCU: 0x15D4E, offset: 0x37591, size: 0x8, addend: 0x0, symName: __ZNSt3__117__compressed_pairIPN7graphic5colorERNS_9allocatorIS2_EEEC1B8ue170006IDnS6_EEOT_OT0_, symObjAddr: 0x17F0, symBinAddr: 0x10000A5AC, symSize: 0x3C }
  - { offsetInCU: 0x15DA6, offset: 0x375E9, size: 0x8, addend: 0x0, symName: __ZNSt3__114__split_bufferIN7graphic5colorERNS_9allocatorIS2_EEE7__allocB8ue170006Ev, symObjAddr: 0x1868, symBinAddr: 0x10000A624, symSize: 0x28 }
  - { offsetInCU: 0x15DCC, offset: 0x3760F, size: 0x8, addend: 0x0, symName: __ZNSt3__114__split_bufferIN7graphic5colorERNS_9allocatorIS2_EEE9__end_capB8ue170006Ev, symObjAddr: 0x1890, symBinAddr: 0x10000A64C, symSize: 0x28 }
  - { offsetInCU: 0x15DF2, offset: 0x37635, size: 0x8, addend: 0x0, symName: __ZNSt3__117__compressed_pairIPN7graphic5colorERNS_9allocatorIS2_EEEC2B8ue170006IDnS6_EEOT_OT0_, symObjAddr: 0x18B8, symBinAddr: 0x10000A674, symSize: 0x48 }
  - { offsetInCU: 0x15E4A, offset: 0x3768D, size: 0x8, addend: 0x0, symName: __ZNSt3__122__compressed_pair_elemIRNS_9allocatorIN7graphic5colorEEELi1ELb0EEC2B8ue170006IS5_vEEOT_, symObjAddr: 0x1900, symBinAddr: 0x10000A6BC, symSize: 0x20 }
  - { offsetInCU: 0x15E8C, offset: 0x376CF, size: 0x8, addend: 0x0, symName: __ZNSt3__19allocatorIN7graphic5colorEE17allocate_at_leastB8ue170006Em, symObjAddr: 0x195C, symBinAddr: 0x10000A718, symSize: 0x40 }
  - { offsetInCU: 0x15EC0, offset: 0x37703, size: 0x8, addend: 0x0, symName: __ZNSt3__19allocatorIN7graphic5colorEE8allocateB8ue170006Em, symObjAddr: 0x199C, symBinAddr: 0x10000A758, symSize: 0x58 }
  - { offsetInCU: 0x15EF4, offset: 0x37737, size: 0x8, addend: 0x0, symName: __ZNSt3__117__compressed_pairIPN7graphic5colorERNS_9allocatorIS2_EEE6secondB8ue170006Ev, symObjAddr: 0x1AF8, symBinAddr: 0x10000A894, symSize: 0x28 }
  - { offsetInCU: 0x15F1A, offset: 0x3775D, size: 0x8, addend: 0x0, symName: __ZNSt3__122__compressed_pair_elemIRNS_9allocatorIN7graphic5colorEEELi1ELb0EE5__getB8ue170006Ev, symObjAddr: 0x1B20, symBinAddr: 0x10000A8BC, symSize: 0x18 }
  - { offsetInCU: 0x15F40, offset: 0x37783, size: 0x8, addend: 0x0, symName: __ZNSt3__117__compressed_pairIPN7graphic5colorERNS_9allocatorIS2_EEE5firstB8ue170006Ev, symObjAddr: 0x1B38, symBinAddr: 0x10000A8D4, symSize: 0x24 }
  - { offsetInCU: 0x15F70, offset: 0x377B3, size: 0x8, addend: 0x0, symName: __ZNSt3__114__split_bufferIN7graphic5colorERNS_9allocatorIS2_EEE21_ConstructTransactionC1B8ue170006EPPS2_m, symObjAddr: 0x1B5C, symBinAddr: 0x10000A8F8, symSize: 0x3C }
  - { offsetInCU: 0x15FB6, offset: 0x377F9, size: 0x8, addend: 0x0, symName: __ZNSt3__114__split_bufferIN7graphic5colorERNS_9allocatorIS2_EEE21_ConstructTransactionD1B8ue170006Ev, symObjAddr: 0x1B98, symBinAddr: 0x10000A934, symSize: 0x2C }
  - { offsetInCU: 0x15FE0, offset: 0x37823, size: 0x8, addend: 0x0, symName: __ZNSt3__114__split_bufferIN7graphic5colorERNS_9allocatorIS2_EEE21_ConstructTransactionC2B8ue170006EPPS2_m, symObjAddr: 0x1BC4, symBinAddr: 0x10000A960, symSize: 0x44 }
  - { offsetInCU: 0x16026, offset: 0x37869, size: 0x8, addend: 0x0, symName: __ZNSt3__114__split_bufferIN7graphic5colorERNS_9allocatorIS2_EEE21_ConstructTransactionD2B8ue170006Ev, symObjAddr: 0x1C08, symBinAddr: 0x10000A9A4, symSize: 0x20 }
  - { offsetInCU: 0x16050, offset: 0x37893, size: 0x8, addend: 0x0, symName: __ZNSt3__116reverse_iteratorIPN7graphic5colorEEC1B8ue170006ES3_, symObjAddr: 0x1E0C, symBinAddr: 0x10000AAF0, symSize: 0x34 }
  - { offsetInCU: 0x16088, offset: 0x378CB, size: 0x8, addend: 0x0, symName: __ZNKSt3__116reverse_iteratorIPN7graphic5colorEE4baseB8ue170006Ev, symObjAddr: 0x1E40, symBinAddr: 0x10000AB24, symSize: 0x18 }
  - { offsetInCU: 0x160AE, offset: 0x378F1, size: 0x8, addend: 0x0, symName: __ZNKSt3__16vectorIN7graphic5colorENS_9allocatorIS2_EEE14__annotate_newB8ue170006Em, symObjAddr: 0x1E94, symBinAddr: 0x10000AB78, symSize: 0xAC }
  - { offsetInCU: 0x160E3, offset: 0x37926, size: 0x8, addend: 0x0, symName: __ZNSt3__129_AllocatorDestroyRangeReverseINS_9allocatorIN7graphic5colorEEENS_16reverse_iteratorIPS3_EEEC1B8ue170006ERS4_RS7_SA_, symObjAddr: 0x1FD4, symBinAddr: 0x10000AC70, symSize: 0x44 }
  - { offsetInCU: 0x1613F, offset: 0x37982, size: 0x8, addend: 0x0, symName: __ZNSt3__116allocator_traitsINS_9allocatorIN7graphic5colorEEEE9constructB8ue170006IS3_JS3_EvvEEvRS4_PT_DpOT0_, symObjAddr: 0x2060, symBinAddr: 0x10000ACFC, symSize: 0x30 }
  - { offsetInCU: 0x16194, offset: 0x379D7, size: 0x8, addend: 0x0, symName: __ZNKSt3__116reverse_iteratorIPN7graphic5colorEEdeB8ue170006Ev, symObjAddr: 0x20B4, symBinAddr: 0x10000AD50, symSize: 0x28 }
  - { offsetInCU: 0x161C9, offset: 0x37A0C, size: 0x8, addend: 0x0, symName: __ZNSt3__116reverse_iteratorIPN7graphic5colorEEppB8ue170006Ev, symObjAddr: 0x20DC, symBinAddr: 0x10000AD78, symSize: 0x20 }
  - { offsetInCU: 0x161EF, offset: 0x37A32, size: 0x8, addend: 0x0, symName: __ZNSt3__128__exception_guard_exceptionsINS_29_AllocatorDestroyRangeReverseINS_9allocatorIN7graphic5colorEEENS_16reverse_iteratorIPS4_EEEEE10__completeB8ue170006Ev, symObjAddr: 0x20FC, symBinAddr: 0x10000AD98, symSize: 0x1C }
  - { offsetInCU: 0x16215, offset: 0x37A58, size: 0x8, addend: 0x0, symName: __ZNSt3__128__exception_guard_exceptionsINS_29_AllocatorDestroyRangeReverseINS_9allocatorIN7graphic5colorEEENS_16reverse_iteratorIPS4_EEEEED1B8ue170006Ev, symObjAddr: 0x2118, symBinAddr: 0x10000ADB4, symSize: 0x2C }
  - { offsetInCU: 0x1623F, offset: 0x37A82, size: 0x8, addend: 0x0, symName: __ZNSt3__128__exception_guard_exceptionsINS_29_AllocatorDestroyRangeReverseINS_9allocatorIN7graphic5colorEEENS_16reverse_iteratorIPS4_EEEEEC1B8ue170006ES9_, symObjAddr: 0x2144, symBinAddr: 0x10000ADE0, symSize: 0x34 }
  - { offsetInCU: 0x16278, offset: 0x37ABB, size: 0x8, addend: 0x0, symName: __ZNSt3__128__exception_guard_exceptionsINS_29_AllocatorDestroyRangeReverseINS_9allocatorIN7graphic5colorEEENS_16reverse_iteratorIPS4_EEEEEC2B8ue170006ES9_, symObjAddr: 0x2178, symBinAddr: 0x10000AE14, symSize: 0x30 }
  - { offsetInCU: 0x162B1, offset: 0x37AF4, size: 0x8, addend: 0x0, symName: __ZNSt3__129_AllocatorDestroyRangeReverseINS_9allocatorIN7graphic5colorEEENS_16reverse_iteratorIPS3_EEEC2B8ue170006ERS4_RS7_SA_, symObjAddr: 0x21A8, symBinAddr: 0x10000AE44, symSize: 0x38 }
  - { offsetInCU: 0x16308, offset: 0x37B4B, size: 0x8, addend: 0x0, symName: __ZN7graphic5colorC1EOS0_, symObjAddr: 0x221C, symBinAddr: 0x10000AEB8, symSize: 0x34 }
  - { offsetInCU: 0x1633D, offset: 0x37B80, size: 0x8, addend: 0x0, symName: __ZN7graphic5colorC2EOS0_, symObjAddr: 0x2250, symBinAddr: 0x10000AEEC, symSize: 0x4C }
  - { offsetInCU: 0x16377, offset: 0x37BBA, size: 0x8, addend: 0x0, symName: __ZN4math11linear_baseIN7graphic5colorELm4EEC2EOS3_, symObjAddr: 0x229C, symBinAddr: 0x10000AF38, symSize: 0x4C }
  - { offsetInCU: 0x163B1, offset: 0x37BF4, size: 0x8, addend: 0x0, symName: __ZNSt3__119__to_address_helperINS_16reverse_iteratorIPN7graphic5colorEEEvE6__callB8ue170006ERKS5_, symObjAddr: 0x24AC, symBinAddr: 0x10000AF84, symSize: 0x38 }
  - { offsetInCU: 0x163D4, offset: 0x37C17, size: 0x8, addend: 0x0, symName: __ZNKSt3__116reverse_iteratorIPN7graphic5colorEEptB8ue170006Ev, symObjAddr: 0x24E4, symBinAddr: 0x10000AFBC, symSize: 0x2C }
  - { offsetInCU: 0x163FA, offset: 0x37C3D, size: 0x8, addend: 0x0, symName: __ZNSt3__128__exception_guard_exceptionsINS_29_AllocatorDestroyRangeReverseINS_9allocatorIN7graphic5colorEEENS_16reverse_iteratorIPS4_EEEEED2B8ue170006Ev, symObjAddr: 0x25C0, symBinAddr: 0x10000B098, symSize: 0x50 }
  - { offsetInCU: 0x16424, offset: 0x37C67, size: 0x8, addend: 0x0, symName: __ZNKSt3__129_AllocatorDestroyRangeReverseINS_9allocatorIN7graphic5colorEEENS_16reverse_iteratorIPS3_EEEclB8ue170006Ev, symObjAddr: 0x2610, symBinAddr: 0x10000B0E8, symSize: 0xB4 }
  - { offsetInCU: 0x1644B, offset: 0x37C8E, size: 0x8, addend: 0x0, symName: __ZNSt3__116reverse_iteratorINS0_IPN7graphic5colorEEEEC1B8ue170006ES4_, symObjAddr: 0x2734, symBinAddr: 0x10000B20C, symSize: 0x3C }
  - { offsetInCU: 0x16483, offset: 0x37CC6, size: 0x8, addend: 0x0, symName: __ZNSt3__116reverse_iteratorINS0_IPN7graphic5colorEEEEppB8ue170006Ev, symObjAddr: 0x281C, symBinAddr: 0x10000B2CC, symSize: 0x30 }
  - { offsetInCU: 0x164A9, offset: 0x37CEC, size: 0x8, addend: 0x0, symName: __ZNKSt3__116reverse_iteratorINS0_IPN7graphic5colorEEEE4baseB8ue170006Ev, symObjAddr: 0x284C, symBinAddr: 0x10000B2FC, symSize: 0x24 }
  - { offsetInCU: 0x164D4, offset: 0x37D17, size: 0x8, addend: 0x0, symName: __ZNSt3__119__to_address_helperINS_16reverse_iteratorINS1_IPN7graphic5colorEEEEEvE6__callB8ue170006ERKS6_, symObjAddr: 0x28C0, symBinAddr: 0x10000B320, symSize: 0x38 }
  - { offsetInCU: 0x164F7, offset: 0x37D3A, size: 0x8, addend: 0x0, symName: __ZNKSt3__116reverse_iteratorINS0_IPN7graphic5colorEEEEptB8ue170006Ev, symObjAddr: 0x28F8, symBinAddr: 0x10000B358, symSize: 0x4C }
  - { offsetInCU: 0x1651D, offset: 0x37D60, size: 0x8, addend: 0x0, symName: __ZNSt3__116reverse_iteratorIPN7graphic5colorEEpLB8ue170006El, symObjAddr: 0x29F4, symBinAddr: 0x10000B454, symSize: 0x30 }
  - { offsetInCU: 0x16551, offset: 0x37D94, size: 0x8, addend: 0x0, symName: __ZNSt3__116reverse_iteratorIPN7graphic5colorEEmmB8ue170006Ev, symObjAddr: 0x2A24, symBinAddr: 0x10000B484, symSize: 0x20 }
  - { offsetInCU: 0x16577, offset: 0x37DBA, size: 0x8, addend: 0x0, symName: __ZNSt3__116reverse_iteratorINS0_IPN7graphic5colorEEEEC2B8ue170006ES4_, symObjAddr: 0x2A44, symBinAddr: 0x10000B4A4, symSize: 0x2C }
  - { offsetInCU: 0x165AF, offset: 0x37DF2, size: 0x8, addend: 0x0, symName: __ZNSt3__116reverse_iteratorIPN7graphic5colorEEC2B8ue170006ES3_, symObjAddr: 0x2A70, symBinAddr: 0x10000B4D0, symSize: 0x28 }
  - { offsetInCU: 0x165E7, offset: 0x37E2A, size: 0x8, addend: 0x0, symName: __ZNSt3__114__split_bufferIN7graphic5colorERNS_9allocatorIS2_EEED2Ev, symObjAddr: 0x2A98, symBinAddr: 0x10000B4F8, symSize: 0x8C }
  - { offsetInCU: 0x16613, offset: 0x37E56, size: 0x8, addend: 0x0, symName: __ZNSt3__114__split_bufferIN7graphic5colorERNS_9allocatorIS2_EEE5clearB8ue170006Ev, symObjAddr: 0x2B24, symBinAddr: 0x10000B584, symSize: 0x28 }
  - { offsetInCU: 0x16639, offset: 0x37E7C, size: 0x8, addend: 0x0, symName: __ZNKSt3__114__split_bufferIN7graphic5colorERNS_9allocatorIS2_EEE8capacityB8ue170006Ev, symObjAddr: 0x2B80, symBinAddr: 0x10000B5AC, symSize: 0x40 }
  - { offsetInCU: 0x1665F, offset: 0x37EA2, size: 0x8, addend: 0x0, symName: __ZNSt3__114__split_bufferIN7graphic5colorERNS_9allocatorIS2_EEE17__destruct_at_endB8ue170006EPS2_, symObjAddr: 0x2BC0, symBinAddr: 0x10000B5EC, symSize: 0x2C }
  - { offsetInCU: 0x16693, offset: 0x37ED6, size: 0x8, addend: 0x0, symName: __ZNSt3__114__split_bufferIN7graphic5colorERNS_9allocatorIS2_EEE17__destruct_at_endB8ue170006EPS2_NS_17integral_constantIbLb0EEE, symObjAddr: 0x2BEC, symBinAddr: 0x10000B618, symSize: 0x80 }
  - { offsetInCU: 0x166D4, offset: 0x37F17, size: 0x8, addend: 0x0, symName: __ZNKSt3__114__split_bufferIN7graphic5colorERNS_9allocatorIS2_EEE9__end_capB8ue170006Ev, symObjAddr: 0x2DB4, symBinAddr: 0x10000B698, symSize: 0x28 }
  - { offsetInCU: 0x166FA, offset: 0x37F3D, size: 0x8, addend: 0x0, symName: __ZNKSt3__117__compressed_pairIPN7graphic5colorERNS_9allocatorIS2_EEE5firstB8ue170006Ev, symObjAddr: 0x2DDC, symBinAddr: 0x10000B6C0, symSize: 0x24 }
  - { offsetInCU: 0x16720, offset: 0x37F63, size: 0x8, addend: 0x0, symName: __ZNKSt3__16vectorIN7graphic5colorENS_9allocatorIS2_EEE17__annotate_shrinkB8ue170006Em, symObjAddr: 0x2E8C, symBinAddr: 0x10000B6E4, symSize: 0xB4 }
  - { offsetInCU: 0x16755, offset: 0x37F98, size: 0x8, addend: 0x0, symName: __ZNSt3__16vectorIN7graphic5colorENS_9allocatorIS2_EEEC2ERKS5_, symObjAddr: 0x3090, symBinAddr: 0x10000B798, symSize: 0x94 }
  - { offsetInCU: 0x16790, offset: 0x37FD3, size: 0x8, addend: 0x0, symName: __ZNSt3__116allocator_traitsINS_9allocatorIN7graphic5colorEEEE37select_on_container_copy_constructionB8ue170006IS4_vvEES4_RKS4_, symObjAddr: 0x3124, symBinAddr: 0x10000B82C, symSize: 0x10 }
  - { offsetInCU: 0x167C4, offset: 0x38007, size: 0x8, addend: 0x0, symName: __ZNSt3__117__compressed_pairIPN7graphic5colorENS_9allocatorIS2_EEEC1B8ue170006IDnS5_EEOT_OT0_, symObjAddr: 0x3134, symBinAddr: 0x10000B83C, symSize: 0x3C }
  - { offsetInCU: 0x1681C, offset: 0x3805F, size: 0x8, addend: 0x0, symName: __ZNSt3__16vectorIN7graphic5colorENS_9allocatorIS2_EEE16__init_with_sizeB8ue170006IPS2_S7_EEvT_T0_m, symObjAddr: 0x3170, symBinAddr: 0x10000B878, symSize: 0xB8 }
  - { offsetInCU: 0x16890, offset: 0x380D3, size: 0x8, addend: 0x0, symName: __ZNSt3__117__compressed_pairIPN7graphic5colorENS_9allocatorIS2_EEEC2B8ue170006IDnS5_EEOT_OT0_, symObjAddr: 0x3228, symBinAddr: 0x10000B930, symSize: 0x44 }
  - { offsetInCU: 0x168E8, offset: 0x3812B, size: 0x8, addend: 0x0, symName: __ZNSt3__122__compressed_pair_elemINS_9allocatorIN7graphic5colorEEELi1ELb1EEC2B8ue170006IS4_vEEOT_, symObjAddr: 0x326C, symBinAddr: 0x10000B974, symSize: 0x18 }
  - { offsetInCU: 0x1692A, offset: 0x3816D, size: 0x8, addend: 0x0, symName: __ZNSt3__16vectorIN7graphic5colorENS_9allocatorIS2_EEE11__vallocateB8ue170006Em, symObjAddr: 0x32C4, symBinAddr: 0x10000B9CC, symSize: 0xAC }
  - { offsetInCU: 0x1696E, offset: 0x381B1, size: 0x8, addend: 0x0, symName: __ZNSt3__16vectorIN7graphic5colorENS_9allocatorIS2_EEE18__construct_at_endIPS2_S7_EEvT_T0_m, symObjAddr: 0x3370, symBinAddr: 0x10000BA78, symSize: 0x8C }
  - { offsetInCU: 0x169E4, offset: 0x38227, size: 0x8, addend: 0x0, symName: __ZNSt3__128__exception_guard_exceptionsINS_6vectorIN7graphic5colorENS_9allocatorIS3_EEE16__destroy_vectorEE10__completeB8ue170006Ev, symObjAddr: 0x33FC, symBinAddr: 0x10000BB04, symSize: 0x1C }
  - { offsetInCU: 0x16A0A, offset: 0x3824D, size: 0x8, addend: 0x0, symName: __ZNSt3__128__exception_guard_exceptionsINS_6vectorIN7graphic5colorENS_9allocatorIS3_EEE16__destroy_vectorEED1B8ue170006Ev, symObjAddr: 0x3418, symBinAddr: 0x10000BB20, symSize: 0x2C }
  - { offsetInCU: 0x16A34, offset: 0x38277, size: 0x8, addend: 0x0, symName: __ZNSt3__128__exception_guard_exceptionsINS_6vectorIN7graphic5colorENS_9allocatorIS3_EEE16__destroy_vectorEEC1B8ue170006ES7_, symObjAddr: 0x3444, symBinAddr: 0x10000BB4C, symSize: 0x34 }
  - { offsetInCU: 0x16A6C, offset: 0x382AF, size: 0x8, addend: 0x0, symName: __ZNSt3__128__exception_guard_exceptionsINS_6vectorIN7graphic5colorENS_9allocatorIS3_EEE16__destroy_vectorEEC2B8ue170006ES7_, symObjAddr: 0x3478, symBinAddr: 0x10000BB80, symSize: 0x24 }
  - { offsetInCU: 0x16AC2, offset: 0x38305, size: 0x8, addend: 0x0, symName: __ZNSt3__119__unwrap_range_implIPN7graphic5colorES3_E8__unwrapB8ue170006ES3_S3_, symObjAddr: 0x36AC, symBinAddr: 0x10000BDB4, symSize: 0x58 }
  - { offsetInCU: 0x16AF8, offset: 0x3833B, size: 0x8, addend: 0x0, symName: __ZNSt3__14pairIPN7graphic5colorES3_EC1B8ue170006IS3_S3_LPv0EEEOT_OT0_, symObjAddr: 0x3704, symBinAddr: 0x10000BE0C, symSize: 0x3C }
  - { offsetInCU: 0x16B57, offset: 0x3839A, size: 0x8, addend: 0x0, symName: __ZNSt3__14pairIPN7graphic5colorES3_EC2B8ue170006IS3_S3_LPv0EEEOT_OT0_, symObjAddr: 0x3740, symBinAddr: 0x10000BE48, symSize: 0x34 }
  - { offsetInCU: 0x16BB6, offset: 0x383F9, size: 0x8, addend: 0x0, symName: __ZNSt3__129_AllocatorDestroyRangeReverseINS_9allocatorIN7graphic5colorEEEPS3_EC1B8ue170006ERS4_RS5_S8_, symObjAddr: 0x37C0, symBinAddr: 0x10000BEC8, symSize: 0x44 }
  - { offsetInCU: 0x16C0D, offset: 0x38450, size: 0x8, addend: 0x0, symName: __ZNSt3__116allocator_traitsINS_9allocatorIN7graphic5colorEEEE9constructB8ue170006IS3_JRS3_EvvEEvRS4_PT_DpOT0_, symObjAddr: 0x3804, symBinAddr: 0x10000BF0C, symSize: 0x30 }
  - { offsetInCU: 0x16C62, offset: 0x384A5, size: 0x8, addend: 0x0, symName: __ZNSt3__128__exception_guard_exceptionsINS_29_AllocatorDestroyRangeReverseINS_9allocatorIN7graphic5colorEEEPS4_EEE10__completeB8ue170006Ev, symObjAddr: 0x3834, symBinAddr: 0x10000BF3C, symSize: 0x1C }
  - { offsetInCU: 0x16C88, offset: 0x384CB, size: 0x8, addend: 0x0, symName: __ZNSt3__128__exception_guard_exceptionsINS_29_AllocatorDestroyRangeReverseINS_9allocatorIN7graphic5colorEEEPS4_EEED1B8ue170006Ev, symObjAddr: 0x3850, symBinAddr: 0x10000BF58, symSize: 0x2C }
  - { offsetInCU: 0x16CB2, offset: 0x384F5, size: 0x8, addend: 0x0, symName: __ZNSt3__128__exception_guard_exceptionsINS_29_AllocatorDestroyRangeReverseINS_9allocatorIN7graphic5colorEEEPS4_EEEC1B8ue170006ES7_, symObjAddr: 0x387C, symBinAddr: 0x10000BF84, symSize: 0x34 }
  - { offsetInCU: 0x16CEB, offset: 0x3852E, size: 0x8, addend: 0x0, symName: __ZNSt3__128__exception_guard_exceptionsINS_29_AllocatorDestroyRangeReverseINS_9allocatorIN7graphic5colorEEEPS4_EEEC2B8ue170006ES7_, symObjAddr: 0x38B0, symBinAddr: 0x10000BFB8, symSize: 0x30 }
  - { offsetInCU: 0x16D24, offset: 0x38567, size: 0x8, addend: 0x0, symName: __ZNSt3__129_AllocatorDestroyRangeReverseINS_9allocatorIN7graphic5colorEEEPS3_EC2B8ue170006ERS4_RS5_S8_, symObjAddr: 0x38E0, symBinAddr: 0x10000BFE8, symSize: 0x38 }
  - { offsetInCU: 0x16D7B, offset: 0x385BE, size: 0x8, addend: 0x0, symName: __ZN7graphic5colorC1ERKS0_, symObjAddr: 0x3954, symBinAddr: 0x10000C05C, symSize: 0x34 }
  - { offsetInCU: 0x16DB0, offset: 0x385F3, size: 0x8, addend: 0x0, symName: __ZN7graphic5colorC2ERKS0_, symObjAddr: 0x3988, symBinAddr: 0x10000C090, symSize: 0x4C }
  - { offsetInCU: 0x16DEF, offset: 0x38632, size: 0x8, addend: 0x0, symName: __ZN4math11linear_baseIN7graphic5colorELm4EEC2ERKS3_, symObjAddr: 0x39D4, symBinAddr: 0x10000C0DC, symSize: 0x4C }
  - { offsetInCU: 0x16E24, offset: 0x38667, size: 0x8, addend: 0x0, symName: __ZNSt3__128__exception_guard_exceptionsINS_29_AllocatorDestroyRangeReverseINS_9allocatorIN7graphic5colorEEEPS4_EEED2B8ue170006Ev, symObjAddr: 0x3A20, symBinAddr: 0x10000C128, symSize: 0x50 }
  - { offsetInCU: 0x16E4E, offset: 0x38691, size: 0x8, addend: 0x0, symName: __ZNKSt3__129_AllocatorDestroyRangeReverseINS_9allocatorIN7graphic5colorEEEPS3_EclB8ue170006Ev, symObjAddr: 0x3A70, symBinAddr: 0x10000C178, symSize: 0x68 }
  - { offsetInCU: 0x16E74, offset: 0x386B7, size: 0x8, addend: 0x0, symName: __ZNSt3__118__unwrap_iter_implIPN7graphic5colorELb1EE8__unwrapB8ue170006ES3_, symObjAddr: 0x3B48, symBinAddr: 0x10000C250, symSize: 0x24 }
  - { offsetInCU: 0x16E97, offset: 0x386DA, size: 0x8, addend: 0x0, symName: __ZNSt3__118__unwrap_iter_implIPN7graphic5colorELb1EE8__rewrapB8ue170006ES3_S3_, symObjAddr: 0x3B6C, symBinAddr: 0x10000C274, symSize: 0x50 }
  - { offsetInCU: 0x16EC8, offset: 0x3870B, size: 0x8, addend: 0x0, symName: __ZNSt3__128__exception_guard_exceptionsINS_6vectorIN7graphic5colorENS_9allocatorIS3_EEE16__destroy_vectorEED2B8ue170006Ev, symObjAddr: 0x3BBC, symBinAddr: 0x10000C2C4, symSize: 0x48 }
  - { offsetInCU: 0x16EF2, offset: 0x38735, size: 0x8, addend: 0x0, symName: __ZNSt3__16vectorIN7graphic5colorENS_9allocatorIS2_EEEC2B8ue170006EOS5_, symObjAddr: 0x3C04, symBinAddr: 0x10000C30C, symSize: 0xC4 }
  - { offsetInCU: 0x16F2D, offset: 0x38770, size: 0x8, addend: 0x0, symName: __ZNKSt3__16vectorIN7graphic5colorENS_9allocatorIS2_EEE11__make_iterB8ue170006EPKS2_, symObjAddr: 0x3CC8, symBinAddr: 0x10000C3D0, symSize: 0x30 }
  - { offsetInCU: 0x16F62, offset: 0x387A5, size: 0x8, addend: 0x0, symName: __ZNSt3__111__wrap_iterIPKN7graphic5colorEEC1B8ue170006ES4_, symObjAddr: 0x3CF8, symBinAddr: 0x10000C400, symSize: 0x34 }
  - { offsetInCU: 0x16F9A, offset: 0x387DD, size: 0x8, addend: 0x0, symName: __ZNSt3__111__wrap_iterIPKN7graphic5colorEEC2B8ue170006ES4_, symObjAddr: 0x3D2C, symBinAddr: 0x10000C434, symSize: 0x20 }
  - { offsetInCU: 0x16FD2, offset: 0x38815, size: 0x8, addend: 0x0, symName: __ZNKSt3__111__wrap_iterIPKN7graphic5colorEE4baseB8ue170006Ev, symObjAddr: 0x3D94, symBinAddr: 0x10000C49C, symSize: 0x18 }
  - { offsetInCU: 0x16FF8, offset: 0x3883B, size: 0x8, addend: 0x0, symName: __ZNSt3__112__tuple_leafILm0EiLb0EE3getB8ue170006Ev, symObjAddr: 0x3DAC, symBinAddr: 0x10000C4B4, symSize: 0x14 }
  - { offsetInCU: 0x1701E, offset: 0x38861, size: 0x8, addend: 0x0, symName: __ZNSt3__112__tuple_leafILm1EiLb0EE3getB8ue170006Ev, symObjAddr: 0x3DC0, symBinAddr: 0x10000C4C8, symSize: 0x14 }
  - { offsetInCU: 0x17044, offset: 0x38887, size: 0x8, addend: 0x0, symName: __ZNSt3__112__tuple_leafILm2EiLb0EE3getB8ue170006Ev, symObjAddr: 0x3DD4, symBinAddr: 0x10000C4DC, symSize: 0x14 }
  - { offsetInCU: 0x1706A, offset: 0x388AD, size: 0x8, addend: 0x0, symName: __ZNSt3__114basic_ofstreamIcNS_11char_traitsIcEEED2Ev, symObjAddr: 0x3DE8, symBinAddr: 0x10000C4F0, symSize: 0x64 }
  - { offsetInCU: 0x170A4, offset: 0x388E7, size: 0x8, addend: 0x0, symName: __ZTv0_n24_NSt3__114basic_ofstreamIcNS_11char_traitsIcEEED1Ev, symObjAddr: 0x3E4C, symBinAddr: 0x10000C554, symSize: 0x28 }
  - { offsetInCU: 0x170BB, offset: 0x388FE, size: 0x8, addend: 0x0, symName: __ZNSt3__19basic_iosIcNS_11char_traitsIcEEEC2B8ue170006Ev, symObjAddr: 0x3E74, symBinAddr: 0x10000C57C, symSize: 0x44 }
  - { offsetInCU: 0x170E5, offset: 0x38928, size: 0x8, addend: 0x0, symName: __ZNSt3__113basic_ostreamIcNS_11char_traitsIcEEEC2B8ue170006EPNS_15basic_streambufIcS2_EE, symObjAddr: 0x3EB8, symBinAddr: 0x10000C5C0, symSize: 0x60 }
  - { offsetInCU: 0x1712A, offset: 0x3896D, size: 0x8, addend: 0x0, symName: __ZNSt3__113basic_filebufIcNS_11char_traitsIcEEE4openERKNS_12basic_stringIcS2_NS_9allocatorIcEEEEj, symObjAddr: 0x3F18, symBinAddr: 0x10000C620, symSize: 0x44 }
  - { offsetInCU: 0x1716E, offset: 0x389B1, size: 0x8, addend: 0x0, symName: __ZNSt3__18ios_baseC2B8ue170006Ev, symObjAddr: 0x3F88, symBinAddr: 0x10000C664, symSize: 0x24 }
  - { offsetInCU: 0x17198, offset: 0x389DB, size: 0x8, addend: 0x0, symName: __ZNSt3__19basic_iosIcNS_11char_traitsIcEEE4initB8ue170006EPNS_15basic_streambufIcS2_EE, symObjAddr: 0x3FAC, symBinAddr: 0x10000C688, symSize: 0x44 }
  - { offsetInCU: 0x171CF, offset: 0x38A12, size: 0x8, addend: 0x0, symName: __ZNKSt3__112basic_stringIcNS_11char_traitsIcEENS_9allocatorIcEEE5c_strB8ue170006Ev, symObjAddr: 0x3FF8, symBinAddr: 0x10000C6CC, symSize: 0x24 }
  - { offsetInCU: 0x171F5, offset: 0x38A38, size: 0x8, addend: 0x0, symName: __ZNKSt3__112basic_stringIcNS_11char_traitsIcEENS_9allocatorIcEEE4dataB8ue170006Ev, symObjAddr: 0x401C, symBinAddr: 0x10000C6F0, symSize: 0x28 }
  - { offsetInCU: 0x1721B, offset: 0x38A5E, size: 0x8, addend: 0x0, symName: __ZNKSt3__112basic_stringIcNS_11char_traitsIcEENS_9allocatorIcEEE13__get_pointerB8ue170006Ev, symObjAddr: 0x4058, symBinAddr: 0x10000C72C, symSize: 0x54 }
  - { offsetInCU: 0x17241, offset: 0x38A84, size: 0x8, addend: 0x0, symName: __ZNKSt3__112basic_stringIcNS_11char_traitsIcEENS_9allocatorIcEEE18__get_long_pointerB8ue170006Ev, symObjAddr: 0x40E4, symBinAddr: 0x10000C780, symSize: 0x28 }
  - { offsetInCU: 0x17267, offset: 0x38AAA, size: 0x8, addend: 0x0, symName: __ZNKSt3__112basic_stringIcNS_11char_traitsIcEENS_9allocatorIcEEE19__get_short_pointerB8ue170006Ev, symObjAddr: 0x410C, symBinAddr: 0x10000C7A8, symSize: 0x28 }
  - { offsetInCU: 0x1728D, offset: 0x38AD0, size: 0x8, addend: 0x0, symName: __ZNSt3__114pointer_traitsIPKcE10pointer_toB8ue170006ERS1_, symObjAddr: 0x416C, symBinAddr: 0x10000C7D0, symSize: 0x14 }
  - { offsetInCU: 0x172B0, offset: 0x38AF3, size: 0x8, addend: 0x0, symName: __ZNKSt3__113basic_filebufIcNS_11char_traitsIcEEE7is_openEv, symObjAddr: 0x41B4, symBinAddr: 0x10000C7E4, symSize: 0x24 }
  - { offsetInCU: 0x37B, offset: 0x38F94, size: 0x8, addend: 0x0, symName: __ZN4mathmiINS_5pointENS_6vectorELm4EEET_RKNS_18affine_linear_baseIS3_T0_XT1_EEERKNS_11linear_baseIS5_XT1_EEE, symObjAddr: 0x60C, symBinAddr: 0x10000CDC0, symSize: 0x58 }
  - { offsetInCU: 0x3D1, offset: 0x38FEA, size: 0x8, addend: 0x0, symName: __ZN4mathplINS_6vectorELm4EEET_RKNS_11linear_baseIS2_XT0_EEES6_, symObjAddr: 0x768, symBinAddr: 0x10000CE18, symSize: 0x58 }
  - { offsetInCU: 0x41E, offset: 0x39037, size: 0x8, addend: 0x0, symName: __ZN4mathmiINS_5pointENS_6vectorELm4EEET0_RKNS_18affine_linear_baseIT_S3_XT1_EEES8_, symObjAddr: 0x8DC, symBinAddr: 0x10000CF8C, symSize: 0x58 }
  - { offsetInCU: 0x474, offset: 0x3908D, size: 0x8, addend: 0x0, symName: __ZN4mathmlIN7graphic5colorELm4EEET_fRKNS_11linear_baseIS3_XT0_EEE, symObjAddr: 0xC9C, symBinAddr: 0x10000D2EC, symSize: 0x54 }
  - { offsetInCU: 0x542A, offset: 0x3E043, size: 0x8, addend: 0x0, symName: __ZNSt3__111make_sharedB8ue170006I6sphereJN4math5pointEdEvEENS_10shared_ptrIT_EEDpOT0_, symObjAddr: 0x7C0, symBinAddr: 0x10000CE70, symSize: 0x48 }
  - { offsetInCU: 0x569E, offset: 0x3E2B7, size: 0x8, addend: 0x0, symName: __ZNSt3__111make_sharedB8ue170006I6sphereJN4math5pointEiEvEENS_10shared_ptrIT_EEDpOT0_, symObjAddr: 0x894, symBinAddr: 0x10000CF44, symSize: 0x48 }
  - { offsetInCU: 0x56F5, offset: 0x3E30E, size: 0x8, addend: 0x0, symName: __ZNSt3__112__to_addressB8ue170006INS_10shared_ptrI4meshEEEEPT_S5_, symObjAddr: 0x1334, symBinAddr: 0x10000D798, symSize: 0x14 }
  - { offsetInCU: 0x572A, offset: 0x3E343, size: 0x8, addend: 0x0, symName: __ZNSt3__110destroy_atB8ue170006INS_10shared_ptrI4meshEELi0EEEvPT_, symObjAddr: 0x1348, symBinAddr: 0x10000D7AC, symSize: 0x24 }
  - { offsetInCU: 0x5761, offset: 0x3E37A, size: 0x8, addend: 0x0, symName: __ZNSt3__112__destroy_atB8ue170006INS_10shared_ptrI4meshEELi0EEEvPT_, symObjAddr: 0x136C, symBinAddr: 0x10000D7D0, symSize: 0x24 }
  - { offsetInCU: 0x5798, offset: 0x3E3B1, size: 0x8, addend: 0x0, symName: __ZNSt3__134__libcpp_atomic_refcount_decrementB8ue170006IlEET_RS1_, symObjAddr: 0x1A60, symBinAddr: 0x10000DC2C, symSize: 0x30 }
  - { offsetInCU: 0x57CD, offset: 0x3E3E6, size: 0x8, addend: 0x0, symName: __ZNSt3__115allocate_sharedB8ue170006I6sphereNS_9allocatorIS1_EEJN4math5pointEdEvEENS_10shared_ptrIT_EERKT0_DpOT1_, symObjAddr: 0x1A90, symBinAddr: 0x10000DC5C, symSize: 0xA0 }
  - { offsetInCU: 0x5BF3, offset: 0x3E80C, size: 0x8, addend: 0x0, symName: __ZNSt3__112construct_atB8ue170006I6sphereJN4math5pointEdEPS1_EEPT_S6_DpOT0_, symObjAddr: 0x2304, symBinAddr: 0x10000E3D0, symSize: 0x8C }
  - { offsetInCU: 0x5C78, offset: 0x3E891, size: 0x8, addend: 0x0, symName: __ZNSt3__110destroy_atB8ue170006I6sphereLi0EEEvPT_, symObjAddr: 0x2584, symBinAddr: 0x10000E5C4, symSize: 0x24 }
  - { offsetInCU: 0x5CAF, offset: 0x3E8C8, size: 0x8, addend: 0x0, symName: __ZNSt3__112__destroy_atB8ue170006I6sphereLi0EEEvPT_, symObjAddr: 0x25A8, symBinAddr: 0x10000E5E8, symSize: 0x2C }
  - { offsetInCU: 0x5D19, offset: 0x3E932, size: 0x8, addend: 0x0, symName: __ZNSt3__115allocate_sharedB8ue170006I6sphereNS_9allocatorIS1_EEJN4math5pointEiEvEENS_10shared_ptrIT_EERKT0_DpOT1_, symObjAddr: 0x2850, symBinAddr: 0x10000E890, symSize: 0xA0 }
  - { offsetInCU: 0x5DA6, offset: 0x3E9BF, size: 0x8, addend: 0x0, symName: __ZNSt3__112construct_atB8ue170006I6sphereJN4math5pointEiEPS1_EEPT_S6_DpOT0_, symObjAddr: 0x2A34, symBinAddr: 0x10000EA74, symSize: 0x8C }
  - { offsetInCU: 0x864E, offset: 0x41267, size: 0x8, addend: 0x0, symName: __ZN8renderer6renderERN7graphic5imageE, symObjAddr: 0x0, symBinAddr: 0x10000C808, symSize: 0x5B8 }
  - { offsetInCU: 0x8789, offset: 0x413A2, size: 0x8, addend: 0x0, symName: __ZNSt3__110shared_ptrI4meshEC1B8ue170006I6spherevEEONS0_IT_EE, symObjAddr: 0x808, symBinAddr: 0x10000CEB8, symSize: 0x34 }
  - { offsetInCU: 0x87CC, offset: 0x413E5, size: 0x8, addend: 0x0, symName: __ZNSt3__110shared_ptrI4meshED1B8ue170006Ev, symObjAddr: 0x83C, symBinAddr: 0x10000CEEC, symSize: 0x2C }
  - { offsetInCU: 0x87F6, offset: 0x4140F, size: 0x8, addend: 0x0, symName: __ZNSt3__110shared_ptrI6sphereED1B8ue170006Ev, symObjAddr: 0x868, symBinAddr: 0x10000CF18, symSize: 0x2C }
  - { offsetInCU: 0x8820, offset: 0x41439, size: 0x8, addend: 0x0, symName: __ZN8renderer6shaderERKN4math3rayERK5scene, symObjAddr: 0x934, symBinAddr: 0x10000CFE4, symSize: 0x25C }
  - { offsetInCU: 0x88BA, offset: 0x414D3, size: 0x8, addend: 0x0, symName: __ZN7graphic5coloraSEOS0_, symObjAddr: 0xB90, symBinAddr: 0x10000D240, symSize: 0x34 }
  - { offsetInCU: 0x88EB, offset: 0x41504, size: 0x8, addend: 0x0, symName: __ZN5sceneD1Ev, symObjAddr: 0xBF0, symBinAddr: 0x10000D274, symSize: 0x2C }
  - { offsetInCU: 0x8917, offset: 0x41530, size: 0x8, addend: 0x0, symName: __ZNKSt3__18optionalI8hit_infoEcvbB8ue170006Ev, symObjAddr: 0xC1C, symBinAddr: 0x10000D2A0, symSize: 0x28 }
  - { offsetInCU: 0x893D, offset: 0x41556, size: 0x8, addend: 0x0, symName: __ZNSt3__18optionalI8hit_infoEptB8ue170006Ev, symObjAddr: 0xC44, symBinAddr: 0x10000D2C8, symSize: 0x24 }
  - { offsetInCU: 0x8963, offset: 0x4157C, size: 0x8, addend: 0x0, symName: __ZN4math10tuple_baseILm4EEixEm, symObjAddr: 0xD48, symBinAddr: 0x10000D340, symSize: 0x24 }
  - { offsetInCU: 0x8997, offset: 0x415B0, size: 0x8, addend: 0x0, symName: __ZNSt3__18optionalI8hit_infoED1Ev, symObjAddr: 0xD6C, symBinAddr: 0x10000D364, symSize: 0x2C }
  - { offsetInCU: 0x89CE, offset: 0x415E7, size: 0x8, addend: 0x0, symName: __ZN4math11linear_baseIN7graphic5colorELm4EEaSEOS3_, symObjAddr: 0xEC8, symBinAddr: 0x10000D390, symSize: 0x34 }
  - { offsetInCU: 0x8A09, offset: 0x41622, size: 0x8, addend: 0x0, symName: __ZN4math10tuple_baseILm4EEaSERKS1_, symObjAddr: 0xEFC, symBinAddr: 0x10000D3C4, symSize: 0x24 }
  - { offsetInCU: 0x8A3A, offset: 0x41653, size: 0x8, addend: 0x0, symName: __ZN5sceneD2Ev, symObjAddr: 0xF78, symBinAddr: 0x10000D3E8, symSize: 0x2C }
  - { offsetInCU: 0x8A66, offset: 0x4167F, size: 0x8, addend: 0x0, symName: __ZNSt3__16vectorINS_10shared_ptrI4meshEENS_9allocatorIS3_EEED1B8ue170006Ev, symObjAddr: 0xFA4, symBinAddr: 0x10000D414, symSize: 0x2C }
  - { offsetInCU: 0x8A90, offset: 0x416A9, size: 0x8, addend: 0x0, symName: __ZNSt3__16vectorINS_10shared_ptrI4meshEENS_9allocatorIS3_EEED2B8ue170006Ev, symObjAddr: 0xFD0, symBinAddr: 0x10000D440, symSize: 0x44 }
  - { offsetInCU: 0x8ABA, offset: 0x416D3, size: 0x8, addend: 0x0, symName: __ZNSt3__16vectorINS_10shared_ptrI4meshEENS_9allocatorIS3_EEE16__destroy_vectorC1B8ue170006ERS6_, symObjAddr: 0x1014, symBinAddr: 0x10000D484, symSize: 0x34 }
  - { offsetInCU: 0x8AF3, offset: 0x4170C, size: 0x8, addend: 0x0, symName: __ZNSt3__16vectorINS_10shared_ptrI4meshEENS_9allocatorIS3_EEE16__destroy_vectorclB8ue170006Ev, symObjAddr: 0x1054, symBinAddr: 0x10000D4B8, symSize: 0x90 }
  - { offsetInCU: 0x8B19, offset: 0x41732, size: 0x8, addend: 0x0, symName: __ZNSt3__16vectorINS_10shared_ptrI4meshEENS_9allocatorIS3_EEE16__destroy_vectorC2B8ue170006ERS6_, symObjAddr: 0x10E4, symBinAddr: 0x10000D548, symSize: 0x20 }
  - { offsetInCU: 0x8B52, offset: 0x4176B, size: 0x8, addend: 0x0, symName: __ZNSt3__16vectorINS_10shared_ptrI4meshEENS_9allocatorIS3_EEE7__clearB8ue170006Ev, symObjAddr: 0x1104, symBinAddr: 0x10000D568, symSize: 0x28 }
  - { offsetInCU: 0x8B78, offset: 0x41791, size: 0x8, addend: 0x0, symName: __ZNKSt3__16vectorINS_10shared_ptrI4meshEENS_9allocatorIS3_EEE17__annotate_deleteB8ue170006Ev, symObjAddr: 0x112C, symBinAddr: 0x10000D590, symSize: 0xB8 }
  - { offsetInCU: 0x8B9E, offset: 0x417B7, size: 0x8, addend: 0x0, symName: __ZNSt3__116allocator_traitsINS_9allocatorINS_10shared_ptrI4meshEEEEE10deallocateB8ue170006ERS5_PS4_m, symObjAddr: 0x11E4, symBinAddr: 0x10000D648, symSize: 0x34 }
  - { offsetInCU: 0x8BE0, offset: 0x417F9, size: 0x8, addend: 0x0, symName: __ZNSt3__16vectorINS_10shared_ptrI4meshEENS_9allocatorIS3_EEE7__allocB8ue170006Ev, symObjAddr: 0x1218, symBinAddr: 0x10000D67C, symSize: 0x28 }
  - { offsetInCU: 0x8C06, offset: 0x4181F, size: 0x8, addend: 0x0, symName: __ZNKSt3__16vectorINS_10shared_ptrI4meshEENS_9allocatorIS3_EEE8capacityB8ue170006Ev, symObjAddr: 0x1240, symBinAddr: 0x10000D6A4, symSize: 0x40 }
  - { offsetInCU: 0x8C2C, offset: 0x41845, size: 0x8, addend: 0x0, symName: __ZNSt3__16vectorINS_10shared_ptrI4meshEENS_9allocatorIS3_EEE22__base_destruct_at_endB8ue170006EPS3_, symObjAddr: 0x1280, symBinAddr: 0x10000D6E4, symSize: 0x8C }
  - { offsetInCU: 0x8C70, offset: 0x41889, size: 0x8, addend: 0x0, symName: __ZNSt3__116allocator_traitsINS_9allocatorINS_10shared_ptrI4meshEEEEE7destroyB8ue170006IS4_vvEEvRS5_PT_, symObjAddr: 0x130C, symBinAddr: 0x10000D770, symSize: 0x28 }
  - { offsetInCU: 0x8CAB, offset: 0x418C4, size: 0x8, addend: 0x0, symName: __ZNKSt3__16vectorINS_10shared_ptrI4meshEENS_9allocatorIS3_EEE31__annotate_contiguous_containerB8ue170006EPKvS8_S8_S8_, symObjAddr: 0x1390, symBinAddr: 0x10000D7F4, symSize: 0x20 }
  - { offsetInCU: 0x8D01, offset: 0x4191A, size: 0x8, addend: 0x0, symName: __ZNKSt3__16vectorINS_10shared_ptrI4meshEENS_9allocatorIS3_EEE4dataB8ue170006Ev, symObjAddr: 0x13B0, symBinAddr: 0x10000D814, symSize: 0x28 }
  - { offsetInCU: 0x8D27, offset: 0x41940, size: 0x8, addend: 0x0, symName: __ZNKSt3__16vectorINS_10shared_ptrI4meshEENS_9allocatorIS3_EEE4sizeB8ue170006Ev, symObjAddr: 0x13D8, symBinAddr: 0x10000D83C, symSize: 0x28 }
  - { offsetInCU: 0x8D4D, offset: 0x41966, size: 0x8, addend: 0x0, symName: __ZNSt3__19allocatorINS_10shared_ptrI4meshEEE10deallocateB8ue170006EPS3_m, symObjAddr: 0x1400, symBinAddr: 0x10000D864, symSize: 0x40 }
  - { offsetInCU: 0x8D8F, offset: 0x419A8, size: 0x8, addend: 0x0, symName: __ZNSt3__117__compressed_pairIPNS_10shared_ptrI4meshEENS_9allocatorIS3_EEE6secondB8ue170006Ev, symObjAddr: 0x1568, symBinAddr: 0x10000D8A4, symSize: 0x24 }
  - { offsetInCU: 0x8DB5, offset: 0x419CE, size: 0x8, addend: 0x0, symName: __ZNSt3__122__compressed_pair_elemINS_9allocatorINS_10shared_ptrI4meshEEEELi1ELb1EE5__getB8ue170006Ev, symObjAddr: 0x158C, symBinAddr: 0x10000D8C8, symSize: 0x14 }
  - { offsetInCU: 0x8DDB, offset: 0x419F4, size: 0x8, addend: 0x0, symName: __ZNKSt3__16vectorINS_10shared_ptrI4meshEENS_9allocatorIS3_EEE9__end_capB8ue170006Ev, symObjAddr: 0x15A0, symBinAddr: 0x10000D8DC, symSize: 0x28 }
  - { offsetInCU: 0x8E01, offset: 0x41A1A, size: 0x8, addend: 0x0, symName: __ZNKSt3__117__compressed_pairIPNS_10shared_ptrI4meshEENS_9allocatorIS3_EEE5firstB8ue170006Ev, symObjAddr: 0x15C8, symBinAddr: 0x10000D904, symSize: 0x24 }
  - { offsetInCU: 0x8E27, offset: 0x41A40, size: 0x8, addend: 0x0, symName: __ZNKSt3__122__compressed_pair_elemIPNS_10shared_ptrI4meshEELi0ELb0EE5__getB8ue170006Ev, symObjAddr: 0x15EC, symBinAddr: 0x10000D928, symSize: 0x14 }
  - { offsetInCU: 0x8E4D, offset: 0x41A66, size: 0x8, addend: 0x0, symName: __ZNKSt3__123__optional_storage_baseI8hit_infoLb0EE9has_valueB8ue170006Ev, symObjAddr: 0x1600, symBinAddr: 0x10000D93C, symSize: 0x1C }
  - { offsetInCU: 0x8E73, offset: 0x41A8C, size: 0x8, addend: 0x0, symName: __ZNRSt3__123__optional_storage_baseI8hit_infoLb0EE5__getB8ue170006Ev, symObjAddr: 0x161C, symBinAddr: 0x10000D958, symSize: 0x14 }
  - { offsetInCU: 0x8EA3, offset: 0x41ABC, size: 0x8, addend: 0x0, symName: __ZNSt3__18optionalI8hit_infoED2Ev, symObjAddr: 0x1788, symBinAddr: 0x10000D96C, symSize: 0x2C }
  - { offsetInCU: 0x8ED0, offset: 0x41AE9, size: 0x8, addend: 0x0, symName: __ZNSt3__127__optional_move_assign_baseI8hit_infoLb0EED2Ev, symObjAddr: 0x17B4, symBinAddr: 0x10000D998, symSize: 0x2C }
  - { offsetInCU: 0x8EFD, offset: 0x41B16, size: 0x8, addend: 0x0, symName: __ZNSt3__127__optional_copy_assign_baseI8hit_infoLb0EED2Ev, symObjAddr: 0x17E0, symBinAddr: 0x10000D9C4, symSize: 0x2C }
  - { offsetInCU: 0x8F2A, offset: 0x41B43, size: 0x8, addend: 0x0, symName: __ZNSt3__120__optional_move_baseI8hit_infoLb0EED2Ev, symObjAddr: 0x180C, symBinAddr: 0x10000D9F0, symSize: 0x2C }
  - { offsetInCU: 0x8F57, offset: 0x41B70, size: 0x8, addend: 0x0, symName: __ZNSt3__120__optional_copy_baseI8hit_infoLb0EED2Ev, symObjAddr: 0x1838, symBinAddr: 0x10000DA1C, symSize: 0x2C }
  - { offsetInCU: 0x8F84, offset: 0x41B9D, size: 0x8, addend: 0x0, symName: __ZNSt3__123__optional_storage_baseI8hit_infoLb0EED2Ev, symObjAddr: 0x1864, symBinAddr: 0x10000DA48, symSize: 0x2C }
  - { offsetInCU: 0x8FB1, offset: 0x41BCA, size: 0x8, addend: 0x0, symName: __ZNSt3__124__optional_destruct_baseI8hit_infoLb0EED2B8ue170006Ev, symObjAddr: 0x1890, symBinAddr: 0x10000DA74, symSize: 0x48 }
  - { offsetInCU: 0x8FDB, offset: 0x41BF4, size: 0x8, addend: 0x0, symName: __ZN8hit_infoD1Ev, symObjAddr: 0x18D8, symBinAddr: 0x10000DABC, symSize: 0x2C }
  - { offsetInCU: 0x9007, offset: 0x41C20, size: 0x8, addend: 0x0, symName: __ZN8hit_infoD2Ev, symObjAddr: 0x1904, symBinAddr: 0x10000DAE8, symSize: 0x38 }
  - { offsetInCU: 0x9033, offset: 0x41C4C, size: 0x8, addend: 0x0, symName: __ZNSt3__110shared_ptrI4meshED2B8ue170006Ev, symObjAddr: 0x1954, symBinAddr: 0x10000DB20, symSize: 0x54 }
  - { offsetInCU: 0x905D, offset: 0x41C76, size: 0x8, addend: 0x0, symName: __ZNSt3__119__shared_weak_count16__release_sharedB8ue170006Ev, symObjAddr: 0x19A8, symBinAddr: 0x10000DB74, symSize: 0x3C }
  - { offsetInCU: 0x9083, offset: 0x41C9C, size: 0x8, addend: 0x0, symName: __ZNSt3__114__shared_count16__release_sharedB8ue170006Ev, symObjAddr: 0x19E4, symBinAddr: 0x10000DBB0, symSize: 0x7C }
  - { offsetInCU: 0x90A9, offset: 0x41CC2, size: 0x8, addend: 0x0, symName: __ZNSt3__19allocatorI6sphereEC1B8ue170006Ev, symObjAddr: 0x1B30, symBinAddr: 0x10000DCFC, symSize: 0x2C }
  - { offsetInCU: 0x9100, offset: 0x41D19, size: 0x8, addend: 0x0, symName: __ZNSt3__118__allocation_guardINS_9allocatorINS_20__shared_ptr_emplaceI6sphereNS1_IS3_EEEEEEEC1B8ue170006IS4_EET_m, symObjAddr: 0x1B5C, symBinAddr: 0x10000DD28, symSize: 0x34 }
  - { offsetInCU: 0x914F, offset: 0x41D68, size: 0x8, addend: 0x0, symName: __ZNKSt3__118__allocation_guardINS_9allocatorINS_20__shared_ptr_emplaceI6sphereNS1_IS3_EEEEEEE5__getB8ue170006Ev, symObjAddr: 0x1B90, symBinAddr: 0x10000DD5C, symSize: 0x18 }
  - { offsetInCU: 0x917F, offset: 0x41D98, size: 0x8, addend: 0x0, symName: __ZNSt3__120__shared_ptr_emplaceI6sphereNS_9allocatorIS1_EEEC1B8ue170006IJN4math5pointEdEEES3_DpOT_, symObjAddr: 0x1BA8, symBinAddr: 0x10000DD74, symSize: 0x3C }
  - { offsetInCU: 0x91E6, offset: 0x41DFF, size: 0x8, addend: 0x0, symName: __ZNSt3__118__allocation_guardINS_9allocatorINS_20__shared_ptr_emplaceI6sphereNS1_IS3_EEEEEEE13__release_ptrB8ue170006Ev, symObjAddr: 0x1BE4, symBinAddr: 0x10000DDB0, symSize: 0x24 }
  - { offsetInCU: 0x921B, offset: 0x41E34, size: 0x8, addend: 0x0, symName: __ZNSt3__110shared_ptrI6sphereE27__create_with_control_blockB8ue170006IS1_NS_20__shared_ptr_emplaceIS1_NS_9allocatorIS1_EEEEEES2_PT_PT0_, symObjAddr: 0x1C08, symBinAddr: 0x10000DDD4, symSize: 0xA4 }
  - { offsetInCU: 0x9270, offset: 0x41E89, size: 0x8, addend: 0x0, symName: __ZNSt3__120__shared_ptr_emplaceI6sphereNS_9allocatorIS1_EEE10__get_elemB8ue170006Ev, symObjAddr: 0x1CAC, symBinAddr: 0x10000DE78, symSize: 0x28 }
  - { offsetInCU: 0x9296, offset: 0x41EAF, size: 0x8, addend: 0x0, symName: __ZNSt3__118__allocation_guardINS_9allocatorINS_20__shared_ptr_emplaceI6sphereNS1_IS3_EEEEEEED1B8ue170006Ev, symObjAddr: 0x1CD4, symBinAddr: 0x10000DEA0, symSize: 0x2C }
  - { offsetInCU: 0x92C0, offset: 0x41ED9, size: 0x8, addend: 0x0, symName: __ZNSt3__118__allocation_guardINS_9allocatorINS_20__shared_ptr_emplaceI6sphereNS1_IS3_EEEEEEEC2B8ue170006IS4_EET_m, symObjAddr: 0x1D00, symBinAddr: 0x10000DECC, symSize: 0x50 }
  - { offsetInCU: 0x930F, offset: 0x41F28, size: 0x8, addend: 0x0, symName: __ZNSt3__19allocatorINS_20__shared_ptr_emplaceI6sphereNS0_IS2_EEEEEC1B8ue170006IS2_EERKNS0_IT_EE, symObjAddr: 0x1D50, symBinAddr: 0x10000DF1C, symSize: 0x34 }
  - { offsetInCU: 0x934D, offset: 0x41F66, size: 0x8, addend: 0x0, symName: __ZNSt3__116allocator_traitsINS_9allocatorINS_20__shared_ptr_emplaceI6sphereNS1_IS3_EEEEEEE8allocateB8ue170006ERS6_m, symObjAddr: 0x1D84, symBinAddr: 0x10000DF50, symSize: 0x2C }
  - { offsetInCU: 0x9380, offset: 0x41F99, size: 0x8, addend: 0x0, symName: __ZNSt3__19allocatorINS_20__shared_ptr_emplaceI6sphereNS0_IS2_EEEEEC2B8ue170006IS2_EERKNS0_IT_EE, symObjAddr: 0x1DB0, symBinAddr: 0x10000DF7C, symSize: 0x30 }
  - { offsetInCU: 0x93BE, offset: 0x41FD7, size: 0x8, addend: 0x0, symName: __ZNSt3__116__non_trivial_ifILb1ENS_9allocatorINS_20__shared_ptr_emplaceI6sphereNS1_IS3_EEEEEEEC2B8ue170006Ev, symObjAddr: 0x1DE0, symBinAddr: 0x10000DFAC, symSize: 0x14 }
  - { offsetInCU: 0x93E8, offset: 0x42001, size: 0x8, addend: 0x0, symName: __ZNSt3__19allocatorINS_20__shared_ptr_emplaceI6sphereNS0_IS2_EEEEE8allocateB8ue170006Em, symObjAddr: 0x1DF4, symBinAddr: 0x10000DFC0, symSize: 0x58 }
  - { offsetInCU: 0x9426, offset: 0x4203F, size: 0x8, addend: 0x0, symName: __ZNSt3__116allocator_traitsINS_9allocatorINS_20__shared_ptr_emplaceI6sphereNS1_IS3_EEEEEEE8max_sizeB8ue170006IS6_vvEEmRKS6_, symObjAddr: 0x1E4C, symBinAddr: 0x10000E018, symSize: 0x28 }
  - { offsetInCU: 0x9452, offset: 0x4206B, size: 0x8, addend: 0x0, symName: __ZNSt3__120__shared_ptr_emplaceI6sphereNS_9allocatorIS1_EEEC2B8ue170006IJN4math5pointEdEEES3_DpOT_, symObjAddr: 0x1F74, symBinAddr: 0x10000E040, symSize: 0xD0 }
  - { offsetInCU: 0x94DA, offset: 0x420F3, size: 0x8, addend: 0x0, symName: __ZNSt3__119__shared_weak_countC2B8ue170006El, symObjAddr: 0x2044, symBinAddr: 0x10000E110, symSize: 0x54 }
  - { offsetInCU: 0x9512, offset: 0x4212B, size: 0x8, addend: 0x0, symName: __ZNSt3__120__shared_ptr_emplaceI6sphereNS_9allocatorIS1_EEE8_StorageC1B8ue170006EOS3_, symObjAddr: 0x2098, symBinAddr: 0x10000E164, symSize: 0x34 }
  - { offsetInCU: 0x954B, offset: 0x42164, size: 0x8, addend: 0x0, symName: __ZNSt3__120__shared_ptr_emplaceI6sphereNS_9allocatorIS1_EEE11__get_allocB8ue170006Ev, symObjAddr: 0x20CC, symBinAddr: 0x10000E198, symSize: 0x28 }
  - { offsetInCU: 0x9576, offset: 0x4218F, size: 0x8, addend: 0x0, symName: __ZNSt3__116allocator_traitsINS_9allocatorI6sphereEEE9constructB8ue170006IS2_JN4math5pointEdEvvEEvRS3_PT_DpOT0_, symObjAddr: 0x20F4, symBinAddr: 0x10000E1C0, symSize: 0x38 }
  - { offsetInCU: 0x95DF, offset: 0x421F8, size: 0x8, addend: 0x0, symName: __ZNSt3__120__shared_ptr_emplaceI6sphereNS_9allocatorIS1_EEE8_StorageD1B8ue170006Ev, symObjAddr: 0x212C, symBinAddr: 0x10000E1F8, symSize: 0x2C }
  - { offsetInCU: 0x9609, offset: 0x42222, size: 0x8, addend: 0x0, symName: __ZNSt3__120__shared_ptr_emplaceI6sphereNS_9allocatorIS1_EEED1Ev, symObjAddr: 0x2158, symBinAddr: 0x10000E224, symSize: 0x2C }
  - { offsetInCU: 0x9636, offset: 0x4224F, size: 0x8, addend: 0x0, symName: __ZNSt3__120__shared_ptr_emplaceI6sphereNS_9allocatorIS1_EEED0Ev, symObjAddr: 0x2184, symBinAddr: 0x10000E250, symSize: 0x30 }
  - { offsetInCU: 0x9663, offset: 0x4227C, size: 0x8, addend: 0x0, symName: __ZNSt3__120__shared_ptr_emplaceI6sphereNS_9allocatorIS1_EEE16__on_zero_sharedEv, symObjAddr: 0x21B4, symBinAddr: 0x10000E280, symSize: 0x44 }
  - { offsetInCU: 0x96AA, offset: 0x422C3, size: 0x8, addend: 0x0, symName: __ZNSt3__120__shared_ptr_emplaceI6sphereNS_9allocatorIS1_EEE21__on_zero_shared_weakEv, symObjAddr: 0x21F8, symBinAddr: 0x10000E2C4, symSize: 0x5C }
  - { offsetInCU: 0x96EB, offset: 0x42304, size: 0x8, addend: 0x0, symName: __ZNSt3__114__shared_countC2B8ue170006El, symObjAddr: 0x2254, symBinAddr: 0x10000E320, symSize: 0x30 }
  - { offsetInCU: 0x9723, offset: 0x4233C, size: 0x8, addend: 0x0, symName: __ZNSt3__120__shared_ptr_emplaceI6sphereNS_9allocatorIS1_EEE8_StorageC2B8ue170006EOS3_, symObjAddr: 0x2284, symBinAddr: 0x10000E350, symSize: 0x30 }
  - { offsetInCU: 0x975C, offset: 0x42375, size: 0x8, addend: 0x0, symName: __ZNSt3__120__shared_ptr_emplaceI6sphereNS_9allocatorIS1_EEE8_Storage11__get_allocB8ue170006Ev, symObjAddr: 0x22B4, symBinAddr: 0x10000E380, symSize: 0x3C }
  - { offsetInCU: 0x97AF, offset: 0x423C8, size: 0x8, addend: 0x0, symName: __ZNSt3__117__compressed_pairINS_9allocatorI6sphereEES2_E16__get_first_baseB8ue170006EPS4_, symObjAddr: 0x22F0, symBinAddr: 0x10000E3BC, symSize: 0x14 }
  - { offsetInCU: 0x97D2, offset: 0x423EB, size: 0x8, addend: 0x0, symName: __ZN4math5pointC1EOS0_, symObjAddr: 0x2390, symBinAddr: 0x10000E45C, symSize: 0x34 }
  - { offsetInCU: 0x9807, offset: 0x42420, size: 0x8, addend: 0x0, symName: __ZN4math5pointC2EOS0_, symObjAddr: 0x23C4, symBinAddr: 0x10000E490, symSize: 0x4C }
  - { offsetInCU: 0x9841, offset: 0x4245A, size: 0x8, addend: 0x0, symName: __ZN4math18affine_linear_baseINS_5pointENS_6vectorELm4EEC2EOS3_, symObjAddr: 0x2410, symBinAddr: 0x10000E4DC, symSize: 0x4C }
  - { offsetInCU: 0x9876, offset: 0x4248F, size: 0x8, addend: 0x0, symName: __ZNSt3__120__shared_ptr_emplaceI6sphereNS_9allocatorIS1_EEE8_StorageD2B8ue170006Ev, symObjAddr: 0x24E8, symBinAddr: 0x10000E528, symSize: 0x2C }
  - { offsetInCU: 0x98A0, offset: 0x424B9, size: 0x8, addend: 0x0, symName: __ZNSt3__120__shared_ptr_emplaceI6sphereNS_9allocatorIS1_EEED2Ev, symObjAddr: 0x2514, symBinAddr: 0x10000E554, symSize: 0x48 }
  - { offsetInCU: 0x98CD, offset: 0x424E6, size: 0x8, addend: 0x0, symName: __ZNSt3__116allocator_traitsINS_9allocatorI6sphereEEE7destroyB8ue170006IS2_vvEEvRS3_PT_, symObjAddr: 0x255C, symBinAddr: 0x10000E59C, symSize: 0x28 }
  - { offsetInCU: 0x9908, offset: 0x42521, size: 0x8, addend: 0x0, symName: __ZNSt3__116allocator_traitsINS_9allocatorINS_20__shared_ptr_emplaceI6sphereNS1_IS3_EEEEEEE10deallocateB8ue170006ERS6_PS5_m, symObjAddr: 0x25D4, symBinAddr: 0x10000E614, symSize: 0x34 }
  - { offsetInCU: 0x994F, offset: 0x42568, size: 0x8, addend: 0x0, symName: __ZNSt3__114pointer_traitsIPNS_20__shared_ptr_emplaceI6sphereNS_9allocatorIS2_EEEEE10pointer_toB8ue170006ERS5_, symObjAddr: 0x2608, symBinAddr: 0x10000E648, symSize: 0x14 }
  - { offsetInCU: 0x9972, offset: 0x4258B, size: 0x8, addend: 0x0, symName: __ZNSt3__19allocatorINS_20__shared_ptr_emplaceI6sphereNS0_IS2_EEEEE10deallocateB8ue170006EPS4_m, symObjAddr: 0x261C, symBinAddr: 0x10000E65C, symSize: 0x40 }
  - { offsetInCU: 0x99B4, offset: 0x425CD, size: 0x8, addend: 0x0, symName: __ZNSt3__110shared_ptrI6sphereEC1B8ue170006Ev, symObjAddr: 0x265C, symBinAddr: 0x10000E69C, symSize: 0x2C }
  - { offsetInCU: 0x99DE, offset: 0x425F7, size: 0x8, addend: 0x0, symName: __ZNSt3__110shared_ptrI6sphereE18__enable_weak_thisB8ue170006Ez, symObjAddr: 0x2688, symBinAddr: 0x10000E6C8, symSize: 0x10 }
  - { offsetInCU: 0x9A06, offset: 0x4261F, size: 0x8, addend: 0x0, symName: __ZNSt3__110shared_ptrI6sphereEC2B8ue170006Ev, symObjAddr: 0x2698, symBinAddr: 0x10000E6D8, symSize: 0x1C }
  - { offsetInCU: 0x9A30, offset: 0x42649, size: 0x8, addend: 0x0, symName: __ZNSt3__120__shared_ptr_emplaceI6sphereNS_9allocatorIS1_EEE8_Storage10__get_elemB8ue170006Ev, symObjAddr: 0x26B4, symBinAddr: 0x10000E6F4, symSize: 0x3C }
  - { offsetInCU: 0x9A83, offset: 0x4269C, size: 0x8, addend: 0x0, symName: __ZNSt3__117__compressed_pairINS_9allocatorI6sphereEES2_E17__get_second_baseB8ue170006EPS4_, symObjAddr: 0x26F0, symBinAddr: 0x10000E730, symSize: 0x14 }
  - { offsetInCU: 0x9AA6, offset: 0x426BF, size: 0x8, addend: 0x0, symName: __ZNSt3__118__allocation_guardINS_9allocatorINS_20__shared_ptr_emplaceI6sphereNS1_IS3_EEEEEEED2B8ue170006Ev, symObjAddr: 0x2704, symBinAddr: 0x10000E744, symSize: 0x2C }
  - { offsetInCU: 0x9AD0, offset: 0x426E9, size: 0x8, addend: 0x0, symName: __ZNSt3__118__allocation_guardINS_9allocatorINS_20__shared_ptr_emplaceI6sphereNS1_IS3_EEEEEEE9__destroyB8ue170006Ev, symObjAddr: 0x2730, symBinAddr: 0x10000E770, symSize: 0x4C }
  - { offsetInCU: 0x9AF6, offset: 0x4270F, size: 0x8, addend: 0x0, symName: __ZNSt3__19allocatorI6sphereEC2B8ue170006Ev, symObjAddr: 0x277C, symBinAddr: 0x10000E7BC, symSize: 0x2C }
  - { offsetInCU: 0x9B20, offset: 0x42739, size: 0x8, addend: 0x0, symName: __ZNSt3__116__non_trivial_ifILb1ENS_9allocatorI6sphereEEEC2B8ue170006Ev, symObjAddr: 0x27A8, symBinAddr: 0x10000E7E8, symSize: 0x14 }
  - { offsetInCU: 0x9B4A, offset: 0x42763, size: 0x8, addend: 0x0, symName: __ZNSt3__110shared_ptrI6sphereED2B8ue170006Ev, symObjAddr: 0x27BC, symBinAddr: 0x10000E7FC, symSize: 0x54 }
  - { offsetInCU: 0x9B74, offset: 0x4278D, size: 0x8, addend: 0x0, symName: __ZNSt3__110shared_ptrI4meshEC2B8ue170006I6spherevEEONS0_IT_EE, symObjAddr: 0x2810, symBinAddr: 0x10000E850, symSize: 0x40 }
  - { offsetInCU: 0x9BBC, offset: 0x427D5, size: 0x8, addend: 0x0, symName: __ZNSt3__120__shared_ptr_emplaceI6sphereNS_9allocatorIS1_EEEC1B8ue170006IJN4math5pointEiEEES3_DpOT_, symObjAddr: 0x28F0, symBinAddr: 0x10000E930, symSize: 0x3C }
  - { offsetInCU: 0x9C23, offset: 0x4283C, size: 0x8, addend: 0x0, symName: __ZNSt3__120__shared_ptr_emplaceI6sphereNS_9allocatorIS1_EEEC2B8ue170006IJN4math5pointEiEEES3_DpOT_, symObjAddr: 0x292C, symBinAddr: 0x10000E96C, symSize: 0xD0 }
  - { offsetInCU: 0x9CAB, offset: 0x428C4, size: 0x8, addend: 0x0, symName: __ZNSt3__116allocator_traitsINS_9allocatorI6sphereEEE9constructB8ue170006IS2_JN4math5pointEiEvvEEvRS3_PT_DpOT0_, symObjAddr: 0x29FC, symBinAddr: 0x10000EA3C, symSize: 0x38 }
  - { offsetInCU: 0x26, offset: 0x42AAA, size: 0x8, addend: 0x0, symName: __ZN6cameraC2ERKN4math5pointERKNS0_10quaternionEfRKNS_13viewport_sizeE, symObjAddr: 0x0, symBinAddr: 0x10000EB00, symSize: 0x70 }
  - { offsetInCU: 0x24B1, offset: 0x44F35, size: 0x8, addend: 0x0, symName: __ZN6cameraC2ERKN4math5pointERKNS0_10quaternionEfRKNS_13viewport_sizeE, symObjAddr: 0x0, symBinAddr: 0x10000EB00, symSize: 0x70 }
  - { offsetInCU: 0x2515, offset: 0x44F99, size: 0x8, addend: 0x0, symName: __ZN6cameraC1ERKN4math5pointERKNS0_10quaternionEfRKNS_13viewport_sizeE, symObjAddr: 0x70, symBinAddr: 0x10000EB70, symSize: 0x4C }
  - { offsetInCU: 0x2579, offset: 0x44FFD, size: 0x8, addend: 0x0, symName: __ZNK6camera9shoot_rayEff, symObjAddr: 0xBC, symBinAddr: 0x10000EBBC, symSize: 0xD8 }
  - { offsetInCU: 0x25BD, offset: 0x45041, size: 0x8, addend: 0x0, symName: __ZN6cameraD1Ev, symObjAddr: 0x1C0, symBinAddr: 0x10000EC94, symSize: 0x2C }
  - { offsetInCU: 0x25E9, offset: 0x4506D, size: 0x8, addend: 0x0, symName: __ZN6cameraD0Ev, symObjAddr: 0x1EC, symBinAddr: 0x10000ECC0, symSize: 0x30 }
  - { offsetInCU: 0x2615, offset: 0x45099, size: 0x8, addend: 0x0, symName: __ZN6cameraD2Ev, symObjAddr: 0x2F4, symBinAddr: 0x10000ECF0, symSize: 0x2C }
  - { offsetInCU: 0x2641, offset: 0x450C5, size: 0x8, addend: 0x0, symName: __ZN12scene_objectD2Ev, symObjAddr: 0x320, symBinAddr: 0x10000ED1C, symSize: 0x4C }
  - { offsetInCU: 0x266B, offset: 0x450EF, size: 0x8, addend: 0x0, symName: __ZN12scene_objectD1Ev, symObjAddr: 0x3C4, symBinAddr: 0x10000ED68, symSize: 0x2C }
  - { offsetInCU: 0x2695, offset: 0x45119, size: 0x8, addend: 0x0, symName: __ZN12scene_objectD0Ev, symObjAddr: 0x3F0, symBinAddr: 0x10000ED94, symSize: 0x30 }
  - { offsetInCU: 0x26, offset: 0x45178, size: 0x8, addend: 0x0, symName: __ZN4meshC2EN4math5pointENS0_10quaternionE, symObjAddr: 0x0, symBinAddr: 0x10000EDC4, symSize: 0x54 }
  - { offsetInCU: 0x23DA, offset: 0x4752C, size: 0x8, addend: 0x0, symName: __ZN4meshC2EN4math5pointENS0_10quaternionE, symObjAddr: 0x0, symBinAddr: 0x10000EDC4, symSize: 0x54 }
  - { offsetInCU: 0x2424, offset: 0x47576, size: 0x8, addend: 0x0, symName: __ZN4meshD1Ev, symObjAddr: 0x54, symBinAddr: 0x10000EE18, symSize: 0x14 }
  - { offsetInCU: 0x244E, offset: 0x475A0, size: 0x8, addend: 0x0, symName: __ZN4meshD0Ev, symObjAddr: 0x68, symBinAddr: 0x10000EE2C, symSize: 0xC }
  - { offsetInCU: 0x5D, offset: 0x4762C, size: 0x8, addend: 0x0, symName: __ZNSt3__17nulloptE, symObjAddr: 0x4034, symBinAddr: 0x100013746, symSize: 0x0 }
  - { offsetInCU: 0x1BBF, offset: 0x4918E, size: 0x8, addend: 0x0, symName: __ZNSt3__17advanceB8ue170006IPNS_10shared_ptrI4meshEEllvEEvRT_T0_, symObjAddr: 0x1D5C, symBinAddr: 0x1000104B4, symSize: 0x38 }
  - { offsetInCU: 0x1F82, offset: 0x49551, size: 0x8, addend: 0x0, symName: __ZNSt3__17advanceB8ue170006INS_16reverse_iteratorIPNS_10shared_ptrI4meshEEEEllvEEvRT_T0_, symObjAddr: 0x2FF8, symBinAddr: 0x10001131C, symSize: 0x38 }
  - { offsetInCU: 0x2AF9, offset: 0x4A0C8, size: 0x8, addend: 0x0, symName: __ZNSt3__1neB8ue170006IPKNS_10shared_ptrI4meshEEEEbRKNS_11__wrap_iterIT_EESA_, symObjAddr: 0x44C, symBinAddr: 0x10000F284, symSize: 0x34 }
  - { offsetInCU: 0x2B3C, offset: 0x4A10B, size: 0x8, addend: 0x0, symName: __ZNSt3__122__make_exception_guardB8ue170006INS_6vectorINS_10shared_ptrI4meshEENS_9allocatorIS4_EEE16__destroy_vectorEEENS_28__exception_guard_exceptionsIT_EESA_, symObjAddr: 0x7F8, symBinAddr: 0x10000F5AC, symSize: 0x40 }
  - { offsetInCU: 0x2B71, offset: 0x4A140, size: 0x8, addend: 0x0, symName: __ZNSt3__119__allocate_at_leastB8ue170006INS_9allocatorINS_10shared_ptrI4meshEEEEEEDaRT_m, symObjAddr: 0xB30, symBinAddr: 0x10000F890, symSize: 0x3C }
  - { offsetInCU: 0x2BB4, offset: 0x4A183, size: 0x8, addend: 0x0, symName: __ZNSt3__117allocate_at_leastB8ue170006INS_9allocatorINS_10shared_ptrI4meshEEEEEENS_17allocation_resultINS_16allocator_traitsIT_E7pointerEEERS8_m, symObjAddr: 0xEC0, symBinAddr: 0x10000FA28, symSize: 0x3C }
  - { offsetInCU: 0x2BF7, offset: 0x4A1C6, size: 0x8, addend: 0x0, symName: __ZNSt3__130__uninitialized_allocator_copyB8ue170006INS_9allocatorINS_10shared_ptrI4meshEEEEPKS4_S7_PS4_EET2_RT_T0_T1_S9_, symObjAddr: 0x1240, symBinAddr: 0x10000FB70, symSize: 0x80 }
  - { offsetInCU: 0x2C94, offset: 0x4A263, size: 0x8, addend: 0x0, symName: __ZNSt3__114__unwrap_rangeB8ue170006IPKNS_10shared_ptrI4meshEES5_EEDaT_T0_, symObjAddr: 0x1330, symBinAddr: 0x10000FC60, symSize: 0x3C }
  - { offsetInCU: 0x2CE0, offset: 0x4A2AF, size: 0x8, addend: 0x0, symName: __ZNSt3__135__uninitialized_allocator_copy_implB8ue170006INS_9allocatorINS_10shared_ptrI4meshEEEEPKS4_S7_PS4_EET2_RT_T0_T1_S9_, symObjAddr: 0x136C, symBinAddr: 0x10000FC9C, symSize: 0xF4 }
  - { offsetInCU: 0x2D7E, offset: 0x4A34D, size: 0x8, addend: 0x0, symName: __ZNSt3__113__unwrap_iterB8ue170006IPNS_10shared_ptrI4meshEENS_18__unwrap_iter_implIS4_Lb1EEELi0EEEDTclsrT0_8__unwrapclsr3stdE7declvalIT_EEEES8_, symObjAddr: 0x1460, symBinAddr: 0x10000FD90, symSize: 0x24 }
  - { offsetInCU: 0x2DC2, offset: 0x4A391, size: 0x8, addend: 0x0, symName: __ZNSt3__113__rewrap_iterB8ue170006IPNS_10shared_ptrI4meshEES4_NS_18__unwrap_iter_implIS4_Lb1EEEEET_S7_T0_, symObjAddr: 0x1484, symBinAddr: 0x10000FDB4, symSize: 0x3C }
  - { offsetInCU: 0x2F67, offset: 0x4A536, size: 0x8, addend: 0x0, symName: __ZNSt3__113__unwrap_iterB8ue170006IPKNS_10shared_ptrI4meshEENS_18__unwrap_iter_implIS5_Lb1EEELi0EEEDTclsrT0_8__unwrapclsr3stdE7declvalIT_EEEES9_, symObjAddr: 0x1518, symBinAddr: 0x10000FE48, symSize: 0x24 }
  - { offsetInCU: 0x2FFF, offset: 0x4A5CE, size: 0x8, addend: 0x0, symName: __ZNSt3__112__to_addressB8ue170006IKNS_10shared_ptrI4meshEEEEPT_S6_, symObjAddr: 0x159C, symBinAddr: 0x10000FECC, symSize: 0x14 }
  - { offsetInCU: 0x3034, offset: 0x4A603, size: 0x8, addend: 0x0, symName: __ZNSt3__122__make_exception_guardB8ue170006INS_29_AllocatorDestroyRangeReverseINS_9allocatorINS_10shared_ptrI4meshEEEEPS5_EEEENS_28__exception_guard_exceptionsIT_EESA_, symObjAddr: 0x15E4, symBinAddr: 0x10000FF14, symSize: 0x4C }
  - { offsetInCU: 0x3091, offset: 0x4A660, size: 0x8, addend: 0x0, symName: __ZNSt3__112construct_atB8ue170006INS_10shared_ptrI4meshEEJRKS3_EPS3_EEPT_S8_DpOT0_, symObjAddr: 0x1788, symBinAddr: 0x1000100B8, symSize: 0x3C }
  - { offsetInCU: 0x3103, offset: 0x4A6D2, size: 0x8, addend: 0x0, symName: __ZNSt3__134__libcpp_atomic_refcount_incrementB8ue170006IlEET_RS1_, symObjAddr: 0x18B4, symBinAddr: 0x1000101E4, symSize: 0x30 }
  - { offsetInCU: 0x3138, offset: 0x4A707, size: 0x8, addend: 0x0, symName: __ZNSt3__119__allocator_destroyB8ue170006INS_9allocatorINS_10shared_ptrI4meshEEEENS_16reverse_iteratorIPS4_EES8_EEvRT_T0_T1_, symObjAddr: 0x199C, symBinAddr: 0x1000102CC, symSize: 0x70 }
  - { offsetInCU: 0x319B, offset: 0x4A76A, size: 0x8, addend: 0x0, symName: __ZNSt3__1neB8ue170006IPNS_10shared_ptrI4meshEES4_EEbRKNS_16reverse_iteratorIT_EERKNS5_IT0_EE, symObjAddr: 0x1A40, symBinAddr: 0x100010370, symSize: 0x48 }
  - { offsetInCU: 0x31E7, offset: 0x4A7B6, size: 0x8, addend: 0x0, symName: __ZNSt3__112__to_addressB8ue170006INS_16reverse_iteratorIPNS_10shared_ptrI4meshEEEEvEEu7__decayIDTclsr19__to_address_helperIT_EE6__callclsr3stdE7declvalIRKS7_EEEEES9_, symObjAddr: 0x1AB0, symBinAddr: 0x1000103B8, symSize: 0x24 }
  - { offsetInCU: 0x3247, offset: 0x4A816, size: 0x8, addend: 0x0, symName: __ZNSt3__14prevB8ue170006IPNS_10shared_ptrI4meshEEEENS_9enable_ifIXsr29__has_input_iterator_categoryIT_EE5valueES6_E4typeES6_NS_15iterator_traitsIS6_E15difference_typeE, symObjAddr: 0x1D20, symBinAddr: 0x100010478, symSize: 0x3C }
  - { offsetInCU: 0x328A, offset: 0x4A859, size: 0x8, addend: 0x0, symName: __ZNSt3__19__advanceB8ue170006IPNS_10shared_ptrI4meshEEEEvRT_NS_15iterator_traitsIS5_E15difference_typeENS_26random_access_iterator_tagE, symObjAddr: 0x1DA8, symBinAddr: 0x1000104EC, symSize: 0x28 }
  - { offsetInCU: 0x3329, offset: 0x4A8F8, size: 0x8, addend: 0x0, symName: __ZNSt3__142__uninitialized_allocator_move_if_noexceptB8ue170006INS_9allocatorINS_10shared_ptrI4meshEEEENS_16reverse_iteratorIPS4_EES8_S8_EET2_RT_T0_T1_S9_, symObjAddr: 0x28C4, symBinAddr: 0x100010BE8, symSize: 0x124 }
  - { offsetInCU: 0x33C9, offset: 0x4A998, size: 0x8, addend: 0x0, symName: __ZNSt3__14swapB8ue170006IPNS_10shared_ptrI4meshEEEENS_9enable_ifIXaasr21is_move_constructibleIT_EE5valuesr18is_move_assignableIS6_EE5valueEvE4typeERS6_S9_, symObjAddr: 0x29E8, symBinAddr: 0x100010D0C, symSize: 0x3C }
  - { offsetInCU: 0x341B, offset: 0x4A9EA, size: 0x8, addend: 0x0, symName: __ZNSt3__122__make_exception_guardB8ue170006INS_29_AllocatorDestroyRangeReverseINS_9allocatorINS_10shared_ptrI4meshEEEENS_16reverse_iteratorIPS5_EEEEEENS_28__exception_guard_exceptionsIT_EESC_, symObjAddr: 0x2A24, symBinAddr: 0x100010D48, symSize: 0x4C }
  - { offsetInCU: 0x3451, offset: 0x4AA20, size: 0x8, addend: 0x0, symName: __ZNSt3__112construct_atB8ue170006INS_10shared_ptrI4meshEEJS3_EPS3_EEPT_S6_DpOT0_, symObjAddr: 0x2BF0, symBinAddr: 0x100010F14, symSize: 0x3C }
  - { offsetInCU: 0x34C3, offset: 0x4AA92, size: 0x8, addend: 0x0, symName: __ZNSt3__119__allocator_destroyB8ue170006INS_9allocatorINS_10shared_ptrI4meshEEEENS_16reverse_iteratorINS6_IPS4_EEEES9_EEvRT_T0_T1_, symObjAddr: 0x2DA4, symBinAddr: 0x1000110C8, symSize: 0x70 }
  - { offsetInCU: 0x3528, offset: 0x4AAF7, size: 0x8, addend: 0x0, symName: __ZNSt3__1neB8ue170006INS_16reverse_iteratorIPNS_10shared_ptrI4meshEEEES6_EEbRKNS1_IT_EERKNS1_IT0_EE, symObjAddr: 0x2E50, symBinAddr: 0x100011174, symSize: 0x60 }
  - { offsetInCU: 0x3574, offset: 0x4AB43, size: 0x8, addend: 0x0, symName: __ZNSt3__112__to_addressB8ue170006INS_16reverse_iteratorINS1_IPNS_10shared_ptrI4meshEEEEEEvEEu7__decayIDTclsr19__to_address_helperIT_EE6__callclsr3stdE7declvalIRKS8_EEEEESA_, symObjAddr: 0x2EB0, symBinAddr: 0x1000111D4, symSize: 0x24 }
  - { offsetInCU: 0x35D4, offset: 0x4ABA3, size: 0x8, addend: 0x0, symName: __ZNSt3__14prevB8ue170006INS_16reverse_iteratorIPNS_10shared_ptrI4meshEEEEEENS_9enable_ifIXsr29__has_input_iterator_categoryIT_EE5valueES8_E4typeES8_NS_15iterator_traitsIS8_E15difference_typeE, symObjAddr: 0x2FAC, symBinAddr: 0x1000112D0, symSize: 0x4C }
  - { offsetInCU: 0x3617, offset: 0x4ABE6, size: 0x8, addend: 0x0, symName: __ZNSt3__19__advanceB8ue170006INS_16reverse_iteratorIPNS_10shared_ptrI4meshEEEEEEvRT_NS_15iterator_traitsIS7_E15difference_typeENS_26random_access_iterator_tagE, symObjAddr: 0x3030, symBinAddr: 0x100011354, symSize: 0x2C }
  - { offsetInCU: 0x3661, offset: 0x4AC30, size: 0x8, addend: 0x0, symName: __ZNSt3__1eqB8ue170006IPKNS_10shared_ptrI4meshEEEEbRKNS_11__wrap_iterIT_EESA_, symObjAddr: 0x346C, symBinAddr: 0x100011790, symSize: 0x48 }
  - { offsetInCU: 0x36CB, offset: 0x4AC9A, size: 0x8, addend: 0x0, symName: __ZNSt3__112construct_atB8ue170006I8hit_infoJRKS1_EPS1_EEPT_S6_DpOT0_, symObjAddr: 0x39E4, symBinAddr: 0x100011AC8, symSize: 0x3C }
  - { offsetInCU: 0x3E3B, offset: 0x4B40A, size: 0x8, addend: 0x0, symName: __ZNSt3__16vectorINS_10shared_ptrI4meshEENS_9allocatorIS3_EEE26__swap_out_circular_bufferERNS_14__split_bufferIS3_RS5_EE, symObjAddr: 0x24DC, symBinAddr: 0x100010880, symSize: 0x110 }
  - { offsetInCU: 0x5CE8, offset: 0x4D2B7, size: 0x8, addend: 0x0, symName: __ZN5sceneC2Ev, symObjAddr: 0x0, symBinAddr: 0x10000EE38, symSize: 0x2C }
  - { offsetInCU: 0x5D14, offset: 0x4D2E3, size: 0x8, addend: 0x0, symName: __ZNSt3__16vectorINS_10shared_ptrI4meshEENS_9allocatorIS3_EEEC1B8ue170006Ev, symObjAddr: 0x2C, symBinAddr: 0x10000EE64, symSize: 0x2C }
  - { offsetInCU: 0x5D3E, offset: 0x4D30D, size: 0x8, addend: 0x0, symName: __ZN5sceneC1Ev, symObjAddr: 0x58, symBinAddr: 0x10000EE90, symSize: 0x2C }
  - { offsetInCU: 0x5D6A, offset: 0x4D339, size: 0x8, addend: 0x0, symName: __ZN5sceneC2ESt16initializer_listINSt3__110shared_ptrI4meshEEE, symObjAddr: 0x84, symBinAddr: 0x10000EEBC, symSize: 0x44 }
  - { offsetInCU: 0x5DA4, offset: 0x4D373, size: 0x8, addend: 0x0, symName: __ZNSt3__16vectorINS_10shared_ptrI4meshEENS_9allocatorIS3_EEEC1B8ue170006ESt16initializer_listIS3_E, symObjAddr: 0xC8, symBinAddr: 0x10000EF00, symSize: 0x3C }
  - { offsetInCU: 0x5DDF, offset: 0x4D3AE, size: 0x8, addend: 0x0, symName: __ZN5sceneC1ESt16initializer_listINSt3__110shared_ptrI4meshEEE, symObjAddr: 0x104, symBinAddr: 0x10000EF3C, symSize: 0x3C }
  - { offsetInCU: 0x5E19, offset: 0x4D3E8, size: 0x8, addend: 0x0, symName: __ZN5scene8add_meshERKNSt3__110shared_ptrI4meshEE, symObjAddr: 0x140, symBinAddr: 0x10000EF78, symSize: 0x2C }
  - { offsetInCU: 0x5E4F, offset: 0x4D41E, size: 0x8, addend: 0x0, symName: __ZNSt3__16vectorINS_10shared_ptrI4meshEENS_9allocatorIS3_EEE9push_backB8ue170006ERKS3_, symObjAddr: 0x16C, symBinAddr: 0x10000EFA4, symSize: 0x6C }
  - { offsetInCU: 0x5E86, offset: 0x4D455, size: 0x8, addend: 0x0, symName: __ZNK5scene3hitERKN4math3rayE, symObjAddr: 0x1D8, symBinAddr: 0x10000F010, symSize: 0x1E8 }
  - { offsetInCU: 0x5F43, offset: 0x4D512, size: 0x8, addend: 0x0, symName: __ZNSt3__18optionalI8hit_infoEC1B8ue170006ENS_9nullopt_tE, symObjAddr: 0x3C0, symBinAddr: 0x10000F1F8, symSize: 0x2C }
  - { offsetInCU: 0x5F79, offset: 0x4D548, size: 0x8, addend: 0x0, symName: __ZNKSt3__16vectorINS_10shared_ptrI4meshEENS_9allocatorIS3_EEE5beginB8ue170006Ev, symObjAddr: 0x3EC, symBinAddr: 0x10000F224, symSize: 0x30 }
  - { offsetInCU: 0x5FA1, offset: 0x4D570, size: 0x8, addend: 0x0, symName: __ZNKSt3__16vectorINS_10shared_ptrI4meshEENS_9allocatorIS3_EEE3endB8ue170006Ev, symObjAddr: 0x41C, symBinAddr: 0x10000F254, symSize: 0x30 }
  - { offsetInCU: 0x5FC9, offset: 0x4D598, size: 0x8, addend: 0x0, symName: __ZNKSt3__111__wrap_iterIPKNS_10shared_ptrI4meshEEEdeB8ue170006Ev, symObjAddr: 0x480, symBinAddr: 0x10000F2B8, symSize: 0x18 }
  - { offsetInCU: 0x5FEF, offset: 0x4D5BE, size: 0x8, addend: 0x0, symName: __ZNKSt3__110shared_ptrI4meshEptB8ue170006Ev, symObjAddr: 0x498, symBinAddr: 0x10000F2D0, symSize: 0x18 }
  - { offsetInCU: 0x6015, offset: 0x4D5E4, size: 0x8, addend: 0x0, symName: __ZNSt3__18optionalI8hit_infoEaSB8ue170006ERKS2_, symObjAddr: 0x4FC, symBinAddr: 0x10000F2E8, symSize: 0x34 }
  - { offsetInCU: 0x6047, offset: 0x4D616, size: 0x8, addend: 0x0, symName: __ZNSt3__111__wrap_iterIPKNS_10shared_ptrI4meshEEEppB8ue170006Ev, symObjAddr: 0x55C, symBinAddr: 0x10000F31C, symSize: 0x20 }
  - { offsetInCU: 0x606D, offset: 0x4D63C, size: 0x8, addend: 0x0, symName: __ZNSt3__16vectorINS_10shared_ptrI4meshEENS_9allocatorIS3_EEEC2B8ue170006Ev, symObjAddr: 0x57C, symBinAddr: 0x10000F33C, symSize: 0x4C }
  - { offsetInCU: 0x60A1, offset: 0x4D670, size: 0x8, addend: 0x0, symName: __ZNSt3__117__compressed_pairIPNS_10shared_ptrI4meshEENS_9allocatorIS3_EEEC1B8ue170006IDnNS_18__default_init_tagEEEOT_OT0_, symObjAddr: 0x5C8, symBinAddr: 0x10000F388, symSize: 0x3C }
  - { offsetInCU: 0x60F9, offset: 0x4D6C8, size: 0x8, addend: 0x0, symName: __ZNSt3__117__compressed_pairIPNS_10shared_ptrI4meshEENS_9allocatorIS3_EEEC2B8ue170006IDnNS_18__default_init_tagEEEOT_OT0_, symObjAddr: 0x610, symBinAddr: 0x10000F3C4, symSize: 0x40 }
  - { offsetInCU: 0x6151, offset: 0x4D720, size: 0x8, addend: 0x0, symName: __ZNSt3__122__compressed_pair_elemIPNS_10shared_ptrI4meshEELi0ELb0EEC2B8ue170006IDnvEEOT_, symObjAddr: 0x650, symBinAddr: 0x10000F404, symSize: 0x1C }
  - { offsetInCU: 0x6193, offset: 0x4D762, size: 0x8, addend: 0x0, symName: __ZNSt3__122__compressed_pair_elemINS_9allocatorINS_10shared_ptrI4meshEEEELi1ELb1EEC2B8ue170006ENS_18__default_init_tagE, symObjAddr: 0x66C, symBinAddr: 0x10000F420, symSize: 0x2C }
  - { offsetInCU: 0x61C8, offset: 0x4D797, size: 0x8, addend: 0x0, symName: __ZNSt3__19allocatorINS_10shared_ptrI4meshEEEC2B8ue170006Ev, symObjAddr: 0x698, symBinAddr: 0x10000F44C, symSize: 0x2C }
  - { offsetInCU: 0x61F2, offset: 0x4D7C1, size: 0x8, addend: 0x0, symName: __ZNSt3__116__non_trivial_ifILb1ENS_9allocatorINS_10shared_ptrI4meshEEEEEC2B8ue170006Ev, symObjAddr: 0x6C4, symBinAddr: 0x10000F478, symSize: 0x14 }
  - { offsetInCU: 0x621C, offset: 0x4D7EB, size: 0x8, addend: 0x0, symName: __ZNSt3__16vectorINS_10shared_ptrI4meshEENS_9allocatorIS3_EEEC2B8ue170006ESt16initializer_listIS3_E, symObjAddr: 0x6D8, symBinAddr: 0x10000F48C, symSize: 0x120 }
  - { offsetInCU: 0x626C, offset: 0x4D83B, size: 0x8, addend: 0x0, symName: __ZNKSt16initializer_listINSt3__110shared_ptrI4meshEEE4sizeB8ue170006Ev, symObjAddr: 0x86C, symBinAddr: 0x10000F5EC, symSize: 0x18 }
  - { offsetInCU: 0x6292, offset: 0x4D861, size: 0x8, addend: 0x0, symName: __ZNSt3__16vectorINS_10shared_ptrI4meshEENS_9allocatorIS3_EEE11__vallocateB8ue170006Em, symObjAddr: 0x884, symBinAddr: 0x10000F604, symSize: 0xAC }
  - { offsetInCU: 0x62D6, offset: 0x4D8A5, size: 0x8, addend: 0x0, symName: __ZNSt3__16vectorINS_10shared_ptrI4meshEENS_9allocatorIS3_EEE18__construct_at_endIPKS3_S9_EEvT_T0_m, symObjAddr: 0x930, symBinAddr: 0x10000F6B0, symSize: 0x8C }
  - { offsetInCU: 0x634C, offset: 0x4D91B, size: 0x8, addend: 0x0, symName: __ZNKSt16initializer_listINSt3__110shared_ptrI4meshEEE5beginB8ue170006Ev, symObjAddr: 0x9BC, symBinAddr: 0x10000F73C, symSize: 0x18 }
  - { offsetInCU: 0x6372, offset: 0x4D941, size: 0x8, addend: 0x0, symName: __ZNKSt16initializer_listINSt3__110shared_ptrI4meshEEE3endB8ue170006Ev, symObjAddr: 0x9D4, symBinAddr: 0x10000F754, symSize: 0x20 }
  - { offsetInCU: 0x6398, offset: 0x4D967, size: 0x8, addend: 0x0, symName: __ZNSt3__128__exception_guard_exceptionsINS_6vectorINS_10shared_ptrI4meshEENS_9allocatorIS4_EEE16__destroy_vectorEE10__completeB8ue170006Ev, symObjAddr: 0x9F4, symBinAddr: 0x10000F774, symSize: 0x1C }
  - { offsetInCU: 0x63BE, offset: 0x4D98D, size: 0x8, addend: 0x0, symName: __ZNSt3__128__exception_guard_exceptionsINS_6vectorINS_10shared_ptrI4meshEENS_9allocatorIS4_EEE16__destroy_vectorEED1B8ue170006Ev, symObjAddr: 0xA10, symBinAddr: 0x10000F790, symSize: 0x2C }
  - { offsetInCU: 0x63E8, offset: 0x4D9B7, size: 0x8, addend: 0x0, symName: __ZNSt3__128__exception_guard_exceptionsINS_6vectorINS_10shared_ptrI4meshEENS_9allocatorIS4_EEE16__destroy_vectorEEC1B8ue170006ES8_, symObjAddr: 0xA3C, symBinAddr: 0x10000F7BC, symSize: 0x34 }
  - { offsetInCU: 0x6420, offset: 0x4D9EF, size: 0x8, addend: 0x0, symName: __ZNSt3__128__exception_guard_exceptionsINS_6vectorINS_10shared_ptrI4meshEENS_9allocatorIS4_EEE16__destroy_vectorEEC2B8ue170006ES8_, symObjAddr: 0xA70, symBinAddr: 0x10000F7F0, symSize: 0x24 }
  - { offsetInCU: 0x6458, offset: 0x4DA27, size: 0x8, addend: 0x0, symName: __ZNKSt3__16vectorINS_10shared_ptrI4meshEENS_9allocatorIS3_EEE8max_sizeEv, symObjAddr: 0xAB4, symBinAddr: 0x10000F814, symSize: 0x60 }
  - { offsetInCU: 0x6480, offset: 0x4DA4F, size: 0x8, addend: 0x0, symName: __ZNKSt3__16vectorINS_10shared_ptrI4meshEENS_9allocatorIS3_EEE20__throw_length_errorB8ue170006Ev, symObjAddr: 0xB14, symBinAddr: 0x10000F874, symSize: 0x1C }
  - { offsetInCU: 0x64A6, offset: 0x4DA75, size: 0x8, addend: 0x0, symName: __ZNSt3__16vectorINS_10shared_ptrI4meshEENS_9allocatorIS3_EEE9__end_capB8ue170006Ev, symObjAddr: 0xB94, symBinAddr: 0x10000F8CC, symSize: 0x28 }
  - { offsetInCU: 0x64CC, offset: 0x4DA9B, size: 0x8, addend: 0x0, symName: __ZNKSt3__16vectorINS_10shared_ptrI4meshEENS_9allocatorIS3_EEE14__annotate_newB8ue170006Em, symObjAddr: 0xBBC, symBinAddr: 0x10000F8F4, symSize: 0xAC }
  - { offsetInCU: 0x650B, offset: 0x4DADA, size: 0x8, addend: 0x0, symName: __ZNSt3__116allocator_traitsINS_9allocatorINS_10shared_ptrI4meshEEEEE8max_sizeB8ue170006IS5_vvEEmRKS5_, symObjAddr: 0xC94, symBinAddr: 0x10000F9A0, symSize: 0x28 }
  - { offsetInCU: 0x6537, offset: 0x4DB06, size: 0x8, addend: 0x0, symName: __ZNKSt3__16vectorINS_10shared_ptrI4meshEENS_9allocatorIS3_EEE7__allocB8ue170006Ev, symObjAddr: 0xCBC, symBinAddr: 0x10000F9C8, symSize: 0x28 }
  - { offsetInCU: 0x655D, offset: 0x4DB2C, size: 0x8, addend: 0x0, symName: __ZNKSt3__117__compressed_pairIPNS_10shared_ptrI4meshEENS_9allocatorIS3_EEE6secondB8ue170006Ev, symObjAddr: 0xD9C, symBinAddr: 0x10000F9F0, symSize: 0x24 }
  - { offsetInCU: 0x6583, offset: 0x4DB52, size: 0x8, addend: 0x0, symName: __ZNKSt3__122__compressed_pair_elemINS_9allocatorINS_10shared_ptrI4meshEEEELi1ELb1EE5__getB8ue170006Ev, symObjAddr: 0xDC0, symBinAddr: 0x10000FA14, symSize: 0x14 }
  - { offsetInCU: 0x65A9, offset: 0x4DB78, size: 0x8, addend: 0x0, symName: __ZNSt3__19allocatorINS_10shared_ptrI4meshEEE17allocate_at_leastB8ue170006Em, symObjAddr: 0xEFC, symBinAddr: 0x10000FA64, symSize: 0x40 }
  - { offsetInCU: 0x65DD, offset: 0x4DBAC, size: 0x8, addend: 0x0, symName: __ZNSt3__19allocatorINS_10shared_ptrI4meshEEE8allocateB8ue170006Em, symObjAddr: 0xF3C, symBinAddr: 0x10000FAA4, symSize: 0x58 }
  - { offsetInCU: 0x6611, offset: 0x4DBE0, size: 0x8, addend: 0x0, symName: __ZNSt3__117__compressed_pairIPNS_10shared_ptrI4meshEENS_9allocatorIS3_EEE5firstB8ue170006Ev, symObjAddr: 0x10D0, symBinAddr: 0x10000FAFC, symSize: 0x24 }
  - { offsetInCU: 0x6637, offset: 0x4DC06, size: 0x8, addend: 0x0, symName: __ZNSt3__122__compressed_pair_elemIPNS_10shared_ptrI4meshEELi0ELb0EE5__getB8ue170006Ev, symObjAddr: 0x10F4, symBinAddr: 0x10000FB20, symSize: 0x14 }
  - { offsetInCU: 0x6676, offset: 0x4DC45, size: 0x8, addend: 0x0, symName: __ZNSt3__16vectorINS_10shared_ptrI4meshEENS_9allocatorIS3_EEE21_ConstructTransactionC1B8ue170006ERS6_m, symObjAddr: 0x1204, symBinAddr: 0x10000FB34, symSize: 0x3C }
  - { offsetInCU: 0x66BE, offset: 0x4DC8D, size: 0x8, addend: 0x0, symName: __ZNSt3__16vectorINS_10shared_ptrI4meshEENS_9allocatorIS3_EEE21_ConstructTransactionD1B8ue170006Ev, symObjAddr: 0x12C0, symBinAddr: 0x10000FBF0, symSize: 0x2C }
  - { offsetInCU: 0x66E8, offset: 0x4DCB7, size: 0x8, addend: 0x0, symName: __ZNSt3__16vectorINS_10shared_ptrI4meshEENS_9allocatorIS3_EEE21_ConstructTransactionC2B8ue170006ERS6_m, symObjAddr: 0x12EC, symBinAddr: 0x10000FC1C, symSize: 0x44 }
  - { offsetInCU: 0x674E, offset: 0x4DD1D, size: 0x8, addend: 0x0, symName: __ZNSt3__119__unwrap_range_implIPKNS_10shared_ptrI4meshEES5_E8__unwrapB8ue170006ES5_S5_, symObjAddr: 0x14C0, symBinAddr: 0x10000FDF0, symSize: 0x58 }
  - { offsetInCU: 0x6784, offset: 0x4DD53, size: 0x8, addend: 0x0, symName: __ZNSt3__14pairIPKNS_10shared_ptrI4meshEES5_EC1B8ue170006IS5_S5_LPv0EEEOT_OT0_, symObjAddr: 0x153C, symBinAddr: 0x10000FE6C, symSize: 0x3C }
  - { offsetInCU: 0x67E3, offset: 0x4DDB2, size: 0x8, addend: 0x0, symName: __ZNSt3__118__unwrap_iter_implIPKNS_10shared_ptrI4meshEELb1EE8__unwrapB8ue170006ES5_, symObjAddr: 0x1578, symBinAddr: 0x10000FEA8, symSize: 0x24 }
  - { offsetInCU: 0x6806, offset: 0x4DDD5, size: 0x8, addend: 0x0, symName: __ZNSt3__14pairIPKNS_10shared_ptrI4meshEES5_EC2B8ue170006IS5_S5_LPv0EEEOT_OT0_, symObjAddr: 0x15B0, symBinAddr: 0x10000FEE0, symSize: 0x34 }
  - { offsetInCU: 0x6865, offset: 0x4DE34, size: 0x8, addend: 0x0, symName: __ZNSt3__129_AllocatorDestroyRangeReverseINS_9allocatorINS_10shared_ptrI4meshEEEEPS4_EC1B8ue170006ERS5_RS6_S9_, symObjAddr: 0x1630, symBinAddr: 0x10000FF60, symSize: 0x44 }
  - { offsetInCU: 0x68BC, offset: 0x4DE8B, size: 0x8, addend: 0x0, symName: __ZNSt3__116allocator_traitsINS_9allocatorINS_10shared_ptrI4meshEEEEE9constructB8ue170006IS4_JRKS4_EvvEEvRS5_PT_DpOT0_, symObjAddr: 0x1674, symBinAddr: 0x10000FFA4, symSize: 0x30 }
  - { offsetInCU: 0x6911, offset: 0x4DEE0, size: 0x8, addend: 0x0, symName: __ZNSt3__128__exception_guard_exceptionsINS_29_AllocatorDestroyRangeReverseINS_9allocatorINS_10shared_ptrI4meshEEEEPS5_EEE10__completeB8ue170006Ev, symObjAddr: 0x16A4, symBinAddr: 0x10000FFD4, symSize: 0x1C }
  - { offsetInCU: 0x6937, offset: 0x4DF06, size: 0x8, addend: 0x0, symName: __ZNSt3__128__exception_guard_exceptionsINS_29_AllocatorDestroyRangeReverseINS_9allocatorINS_10shared_ptrI4meshEEEEPS5_EEED1B8ue170006Ev, symObjAddr: 0x16C0, symBinAddr: 0x10000FFF0, symSize: 0x2C }
  - { offsetInCU: 0x6961, offset: 0x4DF30, size: 0x8, addend: 0x0, symName: __ZNSt3__128__exception_guard_exceptionsINS_29_AllocatorDestroyRangeReverseINS_9allocatorINS_10shared_ptrI4meshEEEEPS5_EEEC1B8ue170006ES8_, symObjAddr: 0x16EC, symBinAddr: 0x10001001C, symSize: 0x34 }
  - { offsetInCU: 0x699A, offset: 0x4DF69, size: 0x8, addend: 0x0, symName: __ZNSt3__128__exception_guard_exceptionsINS_29_AllocatorDestroyRangeReverseINS_9allocatorINS_10shared_ptrI4meshEEEEPS5_EEEC2B8ue170006ES8_, symObjAddr: 0x1720, symBinAddr: 0x100010050, symSize: 0x30 }
  - { offsetInCU: 0x69D3, offset: 0x4DFA2, size: 0x8, addend: 0x0, symName: __ZNSt3__129_AllocatorDestroyRangeReverseINS_9allocatorINS_10shared_ptrI4meshEEEEPS4_EC2B8ue170006ERS5_RS6_S9_, symObjAddr: 0x1750, symBinAddr: 0x100010080, symSize: 0x38 }
  - { offsetInCU: 0x6A2A, offset: 0x4DFF9, size: 0x8, addend: 0x0, symName: __ZNSt3__110shared_ptrI4meshEC1B8ue170006ERKS2_, symObjAddr: 0x17C4, symBinAddr: 0x1000100F4, symSize: 0x34 }
  - { offsetInCU: 0x6A63, offset: 0x4E032, size: 0x8, addend: 0x0, symName: __ZNSt3__110shared_ptrI4meshEC2B8ue170006ERKS2_, symObjAddr: 0x17F8, symBinAddr: 0x100010128, symSize: 0x70 }
  - { offsetInCU: 0x6A9C, offset: 0x4E06B, size: 0x8, addend: 0x0, symName: __ZNSt3__119__shared_weak_count12__add_sharedB8ue170006Ev, symObjAddr: 0x1868, symBinAddr: 0x100010198, symSize: 0x24 }
  - { offsetInCU: 0x6AC2, offset: 0x4E091, size: 0x8, addend: 0x0, symName: __ZNSt3__114__shared_count12__add_sharedB8ue170006Ev, symObjAddr: 0x188C, symBinAddr: 0x1000101BC, symSize: 0x28 }
  - { offsetInCU: 0x6AE8, offset: 0x4E0B7, size: 0x8, addend: 0x0, symName: __ZNSt3__128__exception_guard_exceptionsINS_29_AllocatorDestroyRangeReverseINS_9allocatorINS_10shared_ptrI4meshEEEEPS5_EEED2B8ue170006Ev, symObjAddr: 0x18E4, symBinAddr: 0x100010214, symSize: 0x50 }
  - { offsetInCU: 0x6B12, offset: 0x4E0E1, size: 0x8, addend: 0x0, symName: __ZNKSt3__129_AllocatorDestroyRangeReverseINS_9allocatorINS_10shared_ptrI4meshEEEEPS4_EclB8ue170006Ev, symObjAddr: 0x1934, symBinAddr: 0x100010264, symSize: 0x68 }
  - { offsetInCU: 0x6B38, offset: 0x4E107, size: 0x8, addend: 0x0, symName: __ZNSt3__116reverse_iteratorIPNS_10shared_ptrI4meshEEEC1B8ue170006ES4_, symObjAddr: 0x1A0C, symBinAddr: 0x10001033C, symSize: 0x34 }
  - { offsetInCU: 0x6B70, offset: 0x4E13F, size: 0x8, addend: 0x0, symName: __ZNSt3__116reverse_iteratorIPNS_10shared_ptrI4meshEEEppB8ue170006Ev, symObjAddr: 0x1AD4, symBinAddr: 0x1000103DC, symSize: 0x20 }
  - { offsetInCU: 0x6B96, offset: 0x4E165, size: 0x8, addend: 0x0, symName: __ZNKSt3__116reverse_iteratorIPNS_10shared_ptrI4meshEEE4baseB8ue170006Ev, symObjAddr: 0x1AF4, symBinAddr: 0x1000103FC, symSize: 0x18 }
  - { offsetInCU: 0x6BC1, offset: 0x4E190, size: 0x8, addend: 0x0, symName: __ZNSt3__119__to_address_helperINS_16reverse_iteratorIPNS_10shared_ptrI4meshEEEEvE6__callB8ue170006ERKS6_, symObjAddr: 0x1CBC, symBinAddr: 0x100010414, symSize: 0x38 }
  - { offsetInCU: 0x6BE4, offset: 0x4E1B3, size: 0x8, addend: 0x0, symName: __ZNKSt3__116reverse_iteratorIPNS_10shared_ptrI4meshEEEptB8ue170006Ev, symObjAddr: 0x1CF4, symBinAddr: 0x10001044C, symSize: 0x2C }
  - { offsetInCU: 0x6C0A, offset: 0x4E1D9, size: 0x8, addend: 0x0, symName: __ZNSt3__116reverse_iteratorIPNS_10shared_ptrI4meshEEEC2B8ue170006ES4_, symObjAddr: 0x1DD0, symBinAddr: 0x100010514, symSize: 0x28 }
  - { offsetInCU: 0x6C42, offset: 0x4E211, size: 0x8, addend: 0x0, symName: __ZNSt3__118__unwrap_iter_implIPNS_10shared_ptrI4meshEELb1EE8__unwrapB8ue170006ES4_, symObjAddr: 0x1DF8, symBinAddr: 0x10001053C, symSize: 0x24 }
  - { offsetInCU: 0x6C65, offset: 0x4E234, size: 0x8, addend: 0x0, symName: __ZNSt3__118__unwrap_iter_implIPNS_10shared_ptrI4meshEELb1EE8__rewrapB8ue170006ES4_S4_, symObjAddr: 0x1E1C, symBinAddr: 0x100010560, symSize: 0x50 }
  - { offsetInCU: 0x6C96, offset: 0x4E265, size: 0x8, addend: 0x0, symName: __ZNSt3__16vectorINS_10shared_ptrI4meshEENS_9allocatorIS3_EEE21_ConstructTransactionD2B8ue170006Ev, symObjAddr: 0x1E6C, symBinAddr: 0x1000105B0, symSize: 0x20 }
  - { offsetInCU: 0x6CC0, offset: 0x4E28F, size: 0x8, addend: 0x0, symName: __ZNSt3__128__exception_guard_exceptionsINS_6vectorINS_10shared_ptrI4meshEENS_9allocatorIS4_EEE16__destroy_vectorEED2B8ue170006Ev, symObjAddr: 0x1E8C, symBinAddr: 0x1000105D0, symSize: 0x50 }
  - { offsetInCU: 0x6CEA, offset: 0x4E2B9, size: 0x8, addend: 0x0, symName: __ZNSt3__16vectorINS_10shared_ptrI4meshEENS_9allocatorIS3_EEE22__construct_one_at_endB8ue170006IJRKS3_EEEvDpOT_, symObjAddr: 0x227C, symBinAddr: 0x100010620, symSize: 0x90 }
  - { offsetInCU: 0x6D39, offset: 0x4E308, size: 0x8, addend: 0x0, symName: __ZNSt3__16vectorINS_10shared_ptrI4meshEENS_9allocatorIS3_EEE21__push_back_slow_pathIRKS3_EEvOT_, symObjAddr: 0x230C, symBinAddr: 0x1000106B0, symSize: 0xD8 }
  - { offsetInCU: 0x6D97, offset: 0x4E366, size: 0x8, addend: 0x0, symName: __ZNKSt3__16vectorINS_10shared_ptrI4meshEENS_9allocatorIS3_EEE11__recommendB8ue170006Em, symObjAddr: 0x23E4, symBinAddr: 0x100010788, symSize: 0xB4 }
  - { offsetInCU: 0x6DEC, offset: 0x4E3BB, size: 0x8, addend: 0x0, symName: __ZNSt3__114__split_bufferINS_10shared_ptrI4meshEERNS_9allocatorIS3_EEEC1EmmS6_, symObjAddr: 0x2498, symBinAddr: 0x10001083C, symSize: 0x44 }
  - { offsetInCU: 0x6E42, offset: 0x4E411, size: 0x8, addend: 0x0, symName: __ZNSt3__114__split_bufferINS_10shared_ptrI4meshEERNS_9allocatorIS3_EEED1Ev, symObjAddr: 0x25EC, symBinAddr: 0x100010990, symSize: 0x2C }
  - { offsetInCU: 0x6E6E, offset: 0x4E43D, size: 0x8, addend: 0x0, symName: __ZNSt3__114__split_bufferINS_10shared_ptrI4meshEERNS_9allocatorIS3_EEEC2EmmS6_, symObjAddr: 0x2698, symBinAddr: 0x1000109BC, symSize: 0xD4 }
  - { offsetInCU: 0x6EE1, offset: 0x4E4B0, size: 0x8, addend: 0x0, symName: __ZNSt3__117__compressed_pairIPNS_10shared_ptrI4meshEERNS_9allocatorIS3_EEEC1B8ue170006IDnS7_EEOT_OT0_, symObjAddr: 0x276C, symBinAddr: 0x100010A90, symSize: 0x3C }
  - { offsetInCU: 0x6F39, offset: 0x4E508, size: 0x8, addend: 0x0, symName: __ZNSt3__114__split_bufferINS_10shared_ptrI4meshEERNS_9allocatorIS3_EEE7__allocB8ue170006Ev, symObjAddr: 0x27A8, symBinAddr: 0x100010ACC, symSize: 0x28 }
  - { offsetInCU: 0x6F5F, offset: 0x4E52E, size: 0x8, addend: 0x0, symName: __ZNSt3__114__split_bufferINS_10shared_ptrI4meshEERNS_9allocatorIS3_EEE9__end_capB8ue170006Ev, symObjAddr: 0x27D0, symBinAddr: 0x100010AF4, symSize: 0x28 }
  - { offsetInCU: 0x6F85, offset: 0x4E554, size: 0x8, addend: 0x0, symName: __ZNSt3__117__compressed_pairIPNS_10shared_ptrI4meshEERNS_9allocatorIS3_EEEC2B8ue170006IDnS7_EEOT_OT0_, symObjAddr: 0x27F8, symBinAddr: 0x100010B1C, symSize: 0x48 }
  - { offsetInCU: 0x6FDD, offset: 0x4E5AC, size: 0x8, addend: 0x0, symName: __ZNSt3__122__compressed_pair_elemIRNS_9allocatorINS_10shared_ptrI4meshEEEELi1ELb0EEC2B8ue170006IS6_vEEOT_, symObjAddr: 0x2840, symBinAddr: 0x100010B64, symSize: 0x20 }
  - { offsetInCU: 0x701F, offset: 0x4E5EE, size: 0x8, addend: 0x0, symName: __ZNSt3__117__compressed_pairIPNS_10shared_ptrI4meshEERNS_9allocatorIS3_EEE6secondB8ue170006Ev, symObjAddr: 0x2860, symBinAddr: 0x100010B84, symSize: 0x28 }
  - { offsetInCU: 0x7045, offset: 0x4E614, size: 0x8, addend: 0x0, symName: __ZNSt3__122__compressed_pair_elemIRNS_9allocatorINS_10shared_ptrI4meshEEEELi1ELb0EE5__getB8ue170006Ev, symObjAddr: 0x2888, symBinAddr: 0x100010BAC, symSize: 0x18 }
  - { offsetInCU: 0x706B, offset: 0x4E63A, size: 0x8, addend: 0x0, symName: __ZNSt3__117__compressed_pairIPNS_10shared_ptrI4meshEERNS_9allocatorIS3_EEE5firstB8ue170006Ev, symObjAddr: 0x28A0, symBinAddr: 0x100010BC4, symSize: 0x24 }
  - { offsetInCU: 0x7091, offset: 0x4E660, size: 0x8, addend: 0x0, symName: __ZNSt3__129_AllocatorDestroyRangeReverseINS_9allocatorINS_10shared_ptrI4meshEEEENS_16reverse_iteratorIPS4_EEEC1B8ue170006ERS5_RS8_SB_, symObjAddr: 0x2A70, symBinAddr: 0x100010D94, symSize: 0x44 }
  - { offsetInCU: 0x70E8, offset: 0x4E6B7, size: 0x8, addend: 0x0, symName: __ZNSt3__116allocator_traitsINS_9allocatorINS_10shared_ptrI4meshEEEEE9constructB8ue170006IS4_JS4_EvvEEvRS5_PT_DpOT0_, symObjAddr: 0x2AB4, symBinAddr: 0x100010DD8, symSize: 0x30 }
  - { offsetInCU: 0x713D, offset: 0x4E70C, size: 0x8, addend: 0x0, symName: __ZNKSt3__116reverse_iteratorIPNS_10shared_ptrI4meshEEEdeB8ue170006Ev, symObjAddr: 0x2AE4, symBinAddr: 0x100010E08, symSize: 0x28 }
  - { offsetInCU: 0x7172, offset: 0x4E741, size: 0x8, addend: 0x0, symName: __ZNSt3__128__exception_guard_exceptionsINS_29_AllocatorDestroyRangeReverseINS_9allocatorINS_10shared_ptrI4meshEEEENS_16reverse_iteratorIPS5_EEEEE10__completeB8ue170006Ev, symObjAddr: 0x2B0C, symBinAddr: 0x100010E30, symSize: 0x1C }
  - { offsetInCU: 0x7198, offset: 0x4E767, size: 0x8, addend: 0x0, symName: __ZNSt3__128__exception_guard_exceptionsINS_29_AllocatorDestroyRangeReverseINS_9allocatorINS_10shared_ptrI4meshEEEENS_16reverse_iteratorIPS5_EEEEED1B8ue170006Ev, symObjAddr: 0x2B28, symBinAddr: 0x100010E4C, symSize: 0x2C }
  - { offsetInCU: 0x71C2, offset: 0x4E791, size: 0x8, addend: 0x0, symName: __ZNSt3__128__exception_guard_exceptionsINS_29_AllocatorDestroyRangeReverseINS_9allocatorINS_10shared_ptrI4meshEEEENS_16reverse_iteratorIPS5_EEEEEC1B8ue170006ESA_, symObjAddr: 0x2B54, symBinAddr: 0x100010E78, symSize: 0x34 }
  - { offsetInCU: 0x71FB, offset: 0x4E7CA, size: 0x8, addend: 0x0, symName: __ZNSt3__128__exception_guard_exceptionsINS_29_AllocatorDestroyRangeReverseINS_9allocatorINS_10shared_ptrI4meshEEEENS_16reverse_iteratorIPS5_EEEEEC2B8ue170006ESA_, symObjAddr: 0x2B88, symBinAddr: 0x100010EAC, symSize: 0x30 }
  - { offsetInCU: 0x7234, offset: 0x4E803, size: 0x8, addend: 0x0, symName: __ZNSt3__129_AllocatorDestroyRangeReverseINS_9allocatorINS_10shared_ptrI4meshEEEENS_16reverse_iteratorIPS4_EEEC2B8ue170006ERS5_RS8_SB_, symObjAddr: 0x2BB8, symBinAddr: 0x100010EDC, symSize: 0x38 }
  - { offsetInCU: 0x728B, offset: 0x4E85A, size: 0x8, addend: 0x0, symName: __ZNSt3__110shared_ptrI4meshEC1B8ue170006EOS2_, symObjAddr: 0x2C2C, symBinAddr: 0x100010F50, symSize: 0x34 }
  - { offsetInCU: 0x72C4, offset: 0x4E893, size: 0x8, addend: 0x0, symName: __ZNSt3__110shared_ptrI4meshEC2B8ue170006EOS2_, symObjAddr: 0x2C60, symBinAddr: 0x100010F84, symSize: 0x40 }
  - { offsetInCU: 0x72FD, offset: 0x4E8CC, size: 0x8, addend: 0x0, symName: __ZNSt3__128__exception_guard_exceptionsINS_29_AllocatorDestroyRangeReverseINS_9allocatorINS_10shared_ptrI4meshEEEENS_16reverse_iteratorIPS5_EEEEED2B8ue170006Ev, symObjAddr: 0x2CA0, symBinAddr: 0x100010FC4, symSize: 0x50 }
  - { offsetInCU: 0x7327, offset: 0x4E8F6, size: 0x8, addend: 0x0, symName: __ZNKSt3__129_AllocatorDestroyRangeReverseINS_9allocatorINS_10shared_ptrI4meshEEEENS_16reverse_iteratorIPS4_EEEclB8ue170006Ev, symObjAddr: 0x2CF0, symBinAddr: 0x100011014, symSize: 0xB4 }
  - { offsetInCU: 0x734E, offset: 0x4E91D, size: 0x8, addend: 0x0, symName: __ZNSt3__116reverse_iteratorINS0_IPNS_10shared_ptrI4meshEEEEEC1B8ue170006ES5_, symObjAddr: 0x2E14, symBinAddr: 0x100011138, symSize: 0x3C }
  - { offsetInCU: 0x7386, offset: 0x4E955, size: 0x8, addend: 0x0, symName: __ZNSt3__116reverse_iteratorINS0_IPNS_10shared_ptrI4meshEEEEEppB8ue170006Ev, symObjAddr: 0x2ED4, symBinAddr: 0x1000111F8, symSize: 0x30 }
  - { offsetInCU: 0x73AC, offset: 0x4E97B, size: 0x8, addend: 0x0, symName: __ZNKSt3__116reverse_iteratorINS0_IPNS_10shared_ptrI4meshEEEEE4baseB8ue170006Ev, symObjAddr: 0x2F04, symBinAddr: 0x100011228, symSize: 0x24 }
  - { offsetInCU: 0x73D7, offset: 0x4E9A6, size: 0x8, addend: 0x0, symName: __ZNSt3__119__to_address_helperINS_16reverse_iteratorINS1_IPNS_10shared_ptrI4meshEEEEEEvE6__callB8ue170006ERKS7_, symObjAddr: 0x2F28, symBinAddr: 0x10001124C, symSize: 0x38 }
  - { offsetInCU: 0x73FA, offset: 0x4E9C9, size: 0x8, addend: 0x0, symName: __ZNKSt3__116reverse_iteratorINS0_IPNS_10shared_ptrI4meshEEEEEptB8ue170006Ev, symObjAddr: 0x2F60, symBinAddr: 0x100011284, symSize: 0x4C }
  - { offsetInCU: 0x7420, offset: 0x4E9EF, size: 0x8, addend: 0x0, symName: __ZNSt3__116reverse_iteratorIPNS_10shared_ptrI4meshEEEpLB8ue170006El, symObjAddr: 0x305C, symBinAddr: 0x100011380, symSize: 0x30 }
  - { offsetInCU: 0x7454, offset: 0x4EA23, size: 0x8, addend: 0x0, symName: __ZNSt3__116reverse_iteratorIPNS_10shared_ptrI4meshEEEmmB8ue170006Ev, symObjAddr: 0x308C, symBinAddr: 0x1000113B0, symSize: 0x20 }
  - { offsetInCU: 0x747A, offset: 0x4EA49, size: 0x8, addend: 0x0, symName: __ZNSt3__116reverse_iteratorINS0_IPNS_10shared_ptrI4meshEEEEEC2B8ue170006ES5_, symObjAddr: 0x30AC, symBinAddr: 0x1000113D0, symSize: 0x2C }
  - { offsetInCU: 0x74B2, offset: 0x4EA81, size: 0x8, addend: 0x0, symName: __ZNSt3__114__split_bufferINS_10shared_ptrI4meshEERNS_9allocatorIS3_EEED2Ev, symObjAddr: 0x30D8, symBinAddr: 0x1000113FC, symSize: 0x8C }
  - { offsetInCU: 0x74DE, offset: 0x4EAAD, size: 0x8, addend: 0x0, symName: __ZNSt3__114__split_bufferINS_10shared_ptrI4meshEERNS_9allocatorIS3_EEE5clearB8ue170006Ev, symObjAddr: 0x3164, symBinAddr: 0x100011488, symSize: 0x28 }
  - { offsetInCU: 0x7504, offset: 0x4EAD3, size: 0x8, addend: 0x0, symName: __ZNKSt3__114__split_bufferINS_10shared_ptrI4meshEERNS_9allocatorIS3_EEE8capacityB8ue170006Ev, symObjAddr: 0x318C, symBinAddr: 0x1000114B0, symSize: 0x40 }
  - { offsetInCU: 0x752A, offset: 0x4EAF9, size: 0x8, addend: 0x0, symName: __ZNSt3__114__split_bufferINS_10shared_ptrI4meshEERNS_9allocatorIS3_EEE17__destruct_at_endB8ue170006EPS3_, symObjAddr: 0x31CC, symBinAddr: 0x1000114F0, symSize: 0x2C }
  - { offsetInCU: 0x755E, offset: 0x4EB2D, size: 0x8, addend: 0x0, symName: __ZNSt3__114__split_bufferINS_10shared_ptrI4meshEERNS_9allocatorIS3_EEE17__destruct_at_endB8ue170006EPS3_NS_17integral_constantIbLb0EEE, symObjAddr: 0x31F8, symBinAddr: 0x10001151C, symSize: 0x80 }
  - { offsetInCU: 0x759F, offset: 0x4EB6E, size: 0x8, addend: 0x0, symName: __ZNKSt3__114__split_bufferINS_10shared_ptrI4meshEERNS_9allocatorIS3_EEE9__end_capB8ue170006Ev, symObjAddr: 0x3278, symBinAddr: 0x10001159C, symSize: 0x28 }
  - { offsetInCU: 0x75C5, offset: 0x4EB94, size: 0x8, addend: 0x0, symName: __ZNKSt3__117__compressed_pairIPNS_10shared_ptrI4meshEERNS_9allocatorIS3_EEE5firstB8ue170006Ev, symObjAddr: 0x32A0, symBinAddr: 0x1000115C4, symSize: 0x24 }
  - { offsetInCU: 0x75EB, offset: 0x4EBBA, size: 0x8, addend: 0x0, symName: __ZNSt3__18optionalI8hit_infoEC2B8ue170006ENS_9nullopt_tE, symObjAddr: 0x32C4, symBinAddr: 0x1000115E8, symSize: 0x2C }
  - { offsetInCU: 0x7621, offset: 0x4EBF0, size: 0x8, addend: 0x0, symName: __ZNSt3__127__optional_move_assign_baseI8hit_infoLb0EEC2B8ue170006Ev, symObjAddr: 0x32F0, symBinAddr: 0x100011614, symSize: 0x2C }
  - { offsetInCU: 0x764B, offset: 0x4EC1A, size: 0x8, addend: 0x0, symName: __ZNSt3__127__optional_copy_assign_baseI8hit_infoLb0EEC2B8ue170006Ev, symObjAddr: 0x331C, symBinAddr: 0x100011640, symSize: 0x2C }
  - { offsetInCU: 0x7675, offset: 0x4EC44, size: 0x8, addend: 0x0, symName: __ZNSt3__120__optional_move_baseI8hit_infoLb0EEC2B8ue170006Ev, symObjAddr: 0x3348, symBinAddr: 0x10001166C, symSize: 0x2C }
  - { offsetInCU: 0x769F, offset: 0x4EC6E, size: 0x8, addend: 0x0, symName: __ZNSt3__120__optional_copy_baseI8hit_infoLb0EEC2B8ue170006Ev, symObjAddr: 0x3374, symBinAddr: 0x100011698, symSize: 0x2C }
  - { offsetInCU: 0x76C9, offset: 0x4EC98, size: 0x8, addend: 0x0, symName: __ZNSt3__123__optional_storage_baseI8hit_infoLb0EEC2Ev, symObjAddr: 0x33A0, symBinAddr: 0x1000116C4, symSize: 0x2C }
  - { offsetInCU: 0x76F6, offset: 0x4ECC5, size: 0x8, addend: 0x0, symName: __ZNSt3__124__optional_destruct_baseI8hit_infoLb0EEC2B8ue170006Ev, symObjAddr: 0x33CC, symBinAddr: 0x1000116F0, symSize: 0x1C }
  - { offsetInCU: 0x7720, offset: 0x4ECEF, size: 0x8, addend: 0x0, symName: __ZNKSt3__16vectorINS_10shared_ptrI4meshEENS_9allocatorIS3_EEE11__make_iterB8ue170006EPKS3_, symObjAddr: 0x33E8, symBinAddr: 0x10001170C, symSize: 0x30 }
  - { offsetInCU: 0x7755, offset: 0x4ED24, size: 0x8, addend: 0x0, symName: __ZNSt3__111__wrap_iterIPKNS_10shared_ptrI4meshEEEC1B8ue170006ES5_, symObjAddr: 0x3418, symBinAddr: 0x10001173C, symSize: 0x34 }
  - { offsetInCU: 0x778D, offset: 0x4ED5C, size: 0x8, addend: 0x0, symName: __ZNSt3__111__wrap_iterIPKNS_10shared_ptrI4meshEEEC2B8ue170006ES5_, symObjAddr: 0x344C, symBinAddr: 0x100011770, symSize: 0x20 }
  - { offsetInCU: 0x77C5, offset: 0x4ED94, size: 0x8, addend: 0x0, symName: __ZNKSt3__111__wrap_iterIPKNS_10shared_ptrI4meshEEE4baseB8ue170006Ev, symObjAddr: 0x34B4, symBinAddr: 0x1000117D8, symSize: 0x18 }
  - { offsetInCU: 0x77EB, offset: 0x4EDBA, size: 0x8, addend: 0x0, symName: __ZNSt3__127__optional_move_assign_baseI8hit_infoLb0EEaSB8ue170006ERKS2_, symObjAddr: 0x34FC, symBinAddr: 0x1000117F0, symSize: 0x34 }
  - { offsetInCU: 0x781D, offset: 0x4EDEC, size: 0x8, addend: 0x0, symName: __ZNSt3__127__optional_copy_assign_baseI8hit_infoLb0EEaSB8ue170006ERKS2_, symObjAddr: 0x3530, symBinAddr: 0x100011824, symSize: 0x34 }
  - { offsetInCU: 0x7852, offset: 0x4EE21, size: 0x8, addend: 0x0, symName: __ZNSt3__123__optional_storage_baseI8hit_infoLb0EE13__assign_fromB8ue170006IRKNS_27__optional_copy_assign_baseIS1_Lb0EEEEEvOT_, symObjAddr: 0x3564, symBinAddr: 0x100011858, symSize: 0xB8 }
  - { offsetInCU: 0x7890, offset: 0x4EE5F, size: 0x8, addend: 0x0, symName: __ZNKRSt3__123__optional_storage_baseI8hit_infoLb0EE5__getB8ue170006Ev, symObjAddr: 0x361C, symBinAddr: 0x100011910, symSize: 0x14 }
  - { offsetInCU: 0x78C0, offset: 0x4EE8F, size: 0x8, addend: 0x0, symName: __ZN8hit_infoaSERKS_, symObjAddr: 0x3630, symBinAddr: 0x100011924, symSize: 0x54 }
  - { offsetInCU: 0x78F1, offset: 0x4EEC0, size: 0x8, addend: 0x0, symName: __ZNSt3__124__optional_destruct_baseI8hit_infoLb0EE5resetB8ue170006Ev, symObjAddr: 0x3684, symBinAddr: 0x100011978, symSize: 0x44 }
  - { offsetInCU: 0x7917, offset: 0x4EEE6, size: 0x8, addend: 0x0, symName: __ZNSt3__123__optional_storage_baseI8hit_infoLb0EE11__constructB8ue170006IJRKS1_EEEvDpOT_, symObjAddr: 0x36C8, symBinAddr: 0x1000119BC, symSize: 0x3C }
  - { offsetInCU: 0x795C, offset: 0x4EF2B, size: 0x8, addend: 0x0, symName: __ZN4math5pointaSERKS0_, symObjAddr: 0x3704, symBinAddr: 0x1000119F8, symSize: 0x34 }
  - { offsetInCU: 0x7992, offset: 0x4EF61, size: 0x8, addend: 0x0, symName: __ZN4math6vectoraSERKS0_, symObjAddr: 0x3738, symBinAddr: 0x100011A2C, symSize: 0x34 }
  - { offsetInCU: 0x79D2, offset: 0x4EFA1, size: 0x8, addend: 0x0, symName: __ZN4math18affine_linear_baseINS_5pointENS_6vectorELm4EEaSERKS3_, symObjAddr: 0x376C, symBinAddr: 0x100011A60, symSize: 0x34 }
  - { offsetInCU: 0x7A12, offset: 0x4EFE1, size: 0x8, addend: 0x0, symName: __ZN4math11linear_baseINS_6vectorELm4EEaSERKS2_, symObjAddr: 0x37C4, symBinAddr: 0x100011A94, symSize: 0x34 }
  - { offsetInCU: 0x7A43, offset: 0x4F012, size: 0x8, addend: 0x0, symName: __ZN8hit_infoC1ERKS_, symObjAddr: 0x3A20, symBinAddr: 0x100011B04, symSize: 0x34 }
  - { offsetInCU: 0x7A78, offset: 0x4F047, size: 0x8, addend: 0x0, symName: __ZN8hit_infoC2ERKS_, symObjAddr: 0x3A54, symBinAddr: 0x100011B38, symSize: 0x54 }
  - { offsetInCU: 0x26, offset: 0x4F178, size: 0x8, addend: 0x0, symName: __ZN12scene_objectC2ERKN4math5pointERKNS0_10quaternionE, symObjAddr: 0x0, symBinAddr: 0x100011B8C, symSize: 0x5C }
  - { offsetInCU: 0x23EE, offset: 0x51540, size: 0x8, addend: 0x0, symName: __ZN12scene_objectC2ERKN4math5pointERKNS0_10quaternionE, symObjAddr: 0x0, symBinAddr: 0x100011B8C, symSize: 0x5C }
  - { offsetInCU: 0x2436, offset: 0x51588, size: 0x8, addend: 0x0, symName: __ZN12scene_objectC1ERKN4math5pointERKNS0_10quaternionE, symObjAddr: 0xC4, symBinAddr: 0x100011BE8, symSize: 0x3C }
  - { offsetInCU: 0x26, offset: 0x515FB, size: 0x8, addend: 0x0, symName: __ZN6sphereC2EN4math5pointEf, symObjAddr: 0x0, symBinAddr: 0x100011C24, symSize: 0xC0 }
  - { offsetInCU: 0x4A, offset: 0x5161F, size: 0x8, addend: 0x0, symName: __ZNSt3__18in_placeE, symObjAddr: 0x14D1, symBinAddr: 0x10001374F, symSize: 0x0 }
  - { offsetInCU: 0x2D84, offset: 0x54359, size: 0x8, addend: 0x0, symName: __ZN6sphereC2EN4math5pointEf, symObjAddr: 0x0, symBinAddr: 0x100011C24, symSize: 0xC0 }
  - { offsetInCU: 0x2DCD, offset: 0x543A2, size: 0x8, addend: 0x0, symName: __ZN6sphereC1EN4math5pointEf, symObjAddr: 0x180, symBinAddr: 0x100011CE4, symSize: 0x3C }
  - { offsetInCU: 0x2E16, offset: 0x543EB, size: 0x8, addend: 0x0, symName: __ZN6sphere3hitERKN4math3rayE, symObjAddr: 0x1BC, symBinAddr: 0x100011D20, symSize: 0x268 }
  - { offsetInCU: 0x2ECE, offset: 0x544A3, size: 0x8, addend: 0x0, symName: __ZN8hit_infoC1ERKN4math5pointERKNS0_6vectorEf, symObjAddr: 0x4C0, symBinAddr: 0x100011F88, symSize: 0x44 }
  - { offsetInCU: 0x2F27, offset: 0x544FC, size: 0x8, addend: 0x0, symName: __ZNSt3__18optionalI8hit_infoEC1B8ue170006IS1_Li0EEEOT_, symObjAddr: 0x504, symBinAddr: 0x100011FCC, symSize: 0x34 }
  - { offsetInCU: 0x2F6F, offset: 0x54544, size: 0x8, addend: 0x0, symName: __ZN6sphereD1Ev, symObjAddr: 0x590, symBinAddr: 0x100012000, symSize: 0x2C }
  - { offsetInCU: 0x2F9B, offset: 0x54570, size: 0x8, addend: 0x0, symName: __ZN6sphereD0Ev, symObjAddr: 0x5BC, symBinAddr: 0x10001202C, symSize: 0x30 }
  - { offsetInCU: 0x2FC7, offset: 0x5459C, size: 0x8, addend: 0x0, symName: __ZN8hit_infoC2ERKN4math5pointERKNS0_6vectorEf, symObjAddr: 0xABC, symBinAddr: 0x10001205C, symSize: 0x54 }
  - { offsetInCU: 0x3025, offset: 0x545FA, size: 0x8, addend: 0x0, symName: __ZNSt3__18optionalI8hit_infoEC2B8ue170006IS1_Li0EEEOT_, symObjAddr: 0xC94, symBinAddr: 0x1000120B0, symSize: 0x34 }
  - { offsetInCU: 0x306D, offset: 0x54642, size: 0x8, addend: 0x0, symName: __ZNSt3__127__optional_move_assign_baseI8hit_infoLb0EECI2NS_24__optional_destruct_baseIS1_Lb0EEEIJS1_EEENS_10in_place_tEDpOT_, symObjAddr: 0xCC8, symBinAddr: 0x1000120E4, symSize: 0x34 }
  - { offsetInCU: 0x30AC, offset: 0x54681, size: 0x8, addend: 0x0, symName: __ZNSt3__127__optional_copy_assign_baseI8hit_infoLb0EECI2NS_24__optional_destruct_baseIS1_Lb0EEEIJS1_EEENS_10in_place_tEDpOT_, symObjAddr: 0xCFC, symBinAddr: 0x100012118, symSize: 0x34 }
  - { offsetInCU: 0x30EB, offset: 0x546C0, size: 0x8, addend: 0x0, symName: __ZNSt3__120__optional_move_baseI8hit_infoLb0EECI2NS_24__optional_destruct_baseIS1_Lb0EEEIJS1_EEENS_10in_place_tEDpOT_, symObjAddr: 0xD30, symBinAddr: 0x10001214C, symSize: 0x34 }
  - { offsetInCU: 0x312A, offset: 0x546FF, size: 0x8, addend: 0x0, symName: __ZNSt3__120__optional_copy_baseI8hit_infoLb0EECI2NS_24__optional_destruct_baseIS1_Lb0EEEIJS1_EEENS_10in_place_tEDpOT_, symObjAddr: 0xD64, symBinAddr: 0x100012180, symSize: 0x34 }
  - { offsetInCU: 0x3169, offset: 0x5473E, size: 0x8, addend: 0x0, symName: __ZNSt3__123__optional_storage_baseI8hit_infoLb0EECI2NS_24__optional_destruct_baseIS1_Lb0EEEIJS1_EEENS_10in_place_tEDpOT_, symObjAddr: 0xD98, symBinAddr: 0x1000121B4, symSize: 0x34 }
  - { offsetInCU: 0x31A8, offset: 0x5477D, size: 0x8, addend: 0x0, symName: __ZNSt3__124__optional_destruct_baseI8hit_infoLb0EEC2B8ue170006IJS1_EEENS_10in_place_tEDpOT_, symObjAddr: 0xDCC, symBinAddr: 0x1000121E8, symSize: 0x3C }
  - { offsetInCU: 0x31F8, offset: 0x547CD, size: 0x8, addend: 0x0, symName: __ZN8hit_infoC1EOS_, symObjAddr: 0xE08, symBinAddr: 0x100012224, symSize: 0x34 }
  - { offsetInCU: 0x322D, offset: 0x54802, size: 0x8, addend: 0x0, symName: __ZN8hit_infoC2EOS_, symObjAddr: 0xE3C, symBinAddr: 0x100012258, symSize: 0x54 }
  - { offsetInCU: 0x3267, offset: 0x5483C, size: 0x8, addend: 0x0, symName: __ZN4math6vectorC1EOS0_, symObjAddr: 0xEC4, symBinAddr: 0x1000122AC, symSize: 0x34 }
  - { offsetInCU: 0x329C, offset: 0x54871, size: 0x8, addend: 0x0, symName: __ZN4math6vectorC2EOS0_, symObjAddr: 0xF90, symBinAddr: 0x1000122E0, symSize: 0x4C }
  - { offsetInCU: 0x32D6, offset: 0x548AB, size: 0x8, addend: 0x0, symName: __ZN4math11linear_baseINS_6vectorELm4EEC2EOS2_, symObjAddr: 0xFDC, symBinAddr: 0x10001232C, symSize: 0x4C }
  - { offsetInCU: 0x330B, offset: 0x548E0, size: 0x8, addend: 0x0, symName: __ZN6sphereD2Ev, symObjAddr: 0x108C, symBinAddr: 0x100012378, symSize: 0x2C }
  - { offsetInCU: 0x3337, offset: 0x5490C, size: 0x8, addend: 0x0, symName: __ZN4meshD2Ev, symObjAddr: 0x10B8, symBinAddr: 0x1000123A4, symSize: 0x2C }
...
